
main.o:     file format pe-x86-64


Disassembly of section .text:

0000000000000000 <main>:
#import "Logger"


#import "./core.btb"

fn main() {
       0:	ff f5                	push   %rbp
       2:	48 8b ec             	mov    %rsp,%rbp
       5:	ff f3                	push   %rbx
       7:	ff f7                	push   %rdi
       9:	ff f6                	push   %rsi
       b:	41 ff f4             	push   %r12
       e:	48 8d 0d 00 00 00 00 	lea    0x0(%rip),%rcx        # 15 <main+0x15>
      15:	48 8d 15 00 00 00 00 	lea    0x0(%rip),%rdx        # 1c <main+0x1c>
      1c:	48 89 0a             	mov    %rcx,(%rdx)
      1f:	48 8d 0d 00 00 00 00 	lea    0x0(%rip),%rcx        # 26 <main+0x26>
      26:	48 8d 15 00 00 00 00 	lea    0x0(%rip),%rdx        # 2d <main+0x2d>
      2d:	48 89 0a             	mov    %rcx,(%rdx)
      30:	48 8d 0d 00 00 00 00 	lea    0x0(%rip),%rcx        # 37 <main+0x37>
      37:	48 8d 15 00 00 00 00 	lea    0x0(%rip),%rdx        # 3e <main+0x3e>
      3e:	48 89 0a             	mov    %rcx,(%rdx)
    StartGame()
      41:	e8 ca 73 00 00       	call   7410 <main+0x7410>
      46:	41 8f c4             	pop    %r12
      49:	8f c6                	pop    %rsi
      4b:	8f c7                	pop    %rdi
      4d:	8f c3                	pop    %rbx
      4f:	8f c5                	pop    %rbp
      51:	c3                   	ret
    #macro Assert(EXPR) #endmacro
#else
    #macro Assert(EXPR) CheckAssert(EXPR, #line, #file, #quoted EXPR)
#endif

fn CheckAssert(condition: bool, line: i32, file: char[], expr_string: char[]) {
      52:	ff f5                	push   %rbp
      54:	48 8b ec             	mov    %rsp,%rbp
      57:	48 81 ec 08 00 00 00 	sub    $0x8,%rsp
    // TODO: NOT THREAD SAFE, we need a boolean per thread. thread local storage?
    global disable_asserts: bool;
    loc: i32;
      5e:	33 c9                	xor    %ecx,%ecx
      60:	89 4d f8             	mov    %ecx,-0x8(%rbp)
    if condition
      63:	48 8a 4d 10          	rex.W mov 0x10(%rbp),%cl
      67:	48 0f b6 c9          	movzbq %cl,%rcx
      6b:	48 83 f9 00          	cmp    $0x0,%rcx
      6f:	0f 84 0a 00 00 00    	je     7f <main+0x7f>
        return;
      75:	48 81 c4 08 00 00 00 	add    $0x8,%rsp
      7c:	8f c5                	pop    %rbp
      7e:	c3                   	ret
        
    if disable_asserts
      7f:	48 8d 0d 00 00 00 00 	lea    0x0(%rip),%rcx        # 86 <main+0x86>
      86:	48 8a 11             	rex.W mov (%rcx),%dl
      89:	48 0f b6 d2          	movzbq %dl,%rdx
      8d:	48 83 fa 00          	cmp    $0x0,%rdx
      91:	0f 84 0a 00 00 00    	je     a1 <main+0xa1>
        return;
      97:	48 81 c4 08 00 00 00 	add    $0x8,%rsp
      9e:	8f c5                	pop    %rbp
      a0:	c3                   	ret
        
    disable_asserts = true
      a1:	b9 01 00 00 00       	mov    $0x1,%ecx
      a6:	ff f1                	push   %rcx
      a8:	48 8d 0d 00 00 00 00 	lea    0x0(%rip),%rcx        # af <main+0xaf>
      af:	8f c2                	pop    %rdx
      b1:	88 11                	mov    %dl,(%rcx)
    defer disable_asserts = false
    
    // PrintStackTrace()
    
    prints("\n");
      b3:	b9 01 00 00 00       	mov    $0x1,%ecx
      b8:	ff f1                	push   %rcx
      ba:	48 8d 0d 00 00 00 00 	lea    0x0(%rip),%rcx        # c1 <main+0xc1>
      c1:	8f c2                	pop    %rdx
      c3:	48 81 ec 08 00 00 00 	sub    $0x8,%rsp
      ca:	48 8b f1             	mov    %rcx,%rsi
      cd:	48 8b fa             	mov    %rdx,%rdi
      d0:	48 83 ec 38          	sub    $0x38,%rsp
      d4:	b9 f5 ff ff ff       	mov    $0xfffffff5,%ecx
      d9:	ff 15 00 00 00 00    	call   *0x0(%rip)        # df <main+0xdf>
      df:	48 c7 44 24 20 00 00 	movq   $0x0,0x20(%rsp)
      e6:	00 00 
      e8:	4d 31 c9             	xor    %r9,%r9
      eb:	49 89 f8             	mov    %rdi,%r8
      ee:	48 89 f2             	mov    %rsi,%rdx
      f1:	48 89 c1             	mov    %rax,%rcx
      f4:	ff 15 00 00 00 00    	call   *0x0(%rip)        # fa <main+0xfa>
      fa:	48 83 c4 38          	add    $0x38,%rsp
      fe:	48 81 c4 08 00 00 00 	add    $0x8,%rsp
    
    prints("[ASSERT] ")
     105:	b9 09 00 00 00       	mov    $0x9,%ecx
     10a:	ff f1                	push   %rcx
     10c:	48 8d 0d 00 00 00 00 	lea    0x0(%rip),%rcx        # 113 <main+0x113>
     113:	8f c2                	pop    %rdx
     115:	48 81 ec 08 00 00 00 	sub    $0x8,%rsp
     11c:	48 8b f1             	mov    %rcx,%rsi
     11f:	48 8b fa             	mov    %rdx,%rdi
     122:	48 83 ec 38          	sub    $0x38,%rsp
     126:	b9 f5 ff ff ff       	mov    $0xfffffff5,%ecx
     12b:	ff 15 00 00 00 00    	call   *0x0(%rip)        # 131 <main+0x131>
     131:	48 c7 44 24 20 00 00 	movq   $0x0,0x20(%rsp)
     138:	00 00 
     13a:	4d 31 c9             	xor    %r9,%r9
     13d:	49 89 f8             	mov    %rdi,%r8
     140:	48 89 f2             	mov    %rsi,%rdx
     143:	48 89 c1             	mov    %rax,%rcx
     146:	ff 15 00 00 00 00    	call   *0x0(%rip)        # 14c <main+0x14c>
     14c:	48 83 c4 38          	add    $0x38,%rsp
     150:	48 81 c4 08 00 00 00 	add    $0x8,%rsp
    prints(expr_string)
     157:	48 8b 4d 30          	mov    0x30(%rbp),%rcx
     15b:	48 8b c9             	mov    %rcx,%rcx
     15e:	ff f1                	push   %rcx
     160:	48 8b 4d 28          	mov    0x28(%rbp),%rcx
     164:	8f c2                	pop    %rdx
     166:	48 81 ec 08 00 00 00 	sub    $0x8,%rsp
     16d:	48 8b f1             	mov    %rcx,%rsi
     170:	48 8b fa             	mov    %rdx,%rdi
     173:	48 83 ec 38          	sub    $0x38,%rsp
     177:	b9 f5 ff ff ff       	mov    $0xfffffff5,%ecx
     17c:	ff 15 00 00 00 00    	call   *0x0(%rip)        # 182 <main+0x182>
     182:	48 c7 44 24 20 00 00 	movq   $0x0,0x20(%rsp)
     189:	00 00 
     18b:	4d 31 c9             	xor    %r9,%r9
     18e:	49 89 f8             	mov    %rdi,%r8
     191:	48 89 f2             	mov    %rsi,%rdx
     194:	48 89 c1             	mov    %rax,%rcx
     197:	ff 15 00 00 00 00    	call   *0x0(%rip)        # 19d <main+0x19d>
     19d:	48 83 c4 38          	add    $0x38,%rsp
     1a1:	48 81 c4 08 00 00 00 	add    $0x8,%rsp
    prints(" - ")
     1a8:	b9 03 00 00 00       	mov    $0x3,%ecx
     1ad:	ff f1                	push   %rcx
     1af:	48 8d 0d 00 00 00 00 	lea    0x0(%rip),%rcx        # 1b6 <main+0x1b6>
     1b6:	8f c2                	pop    %rdx
     1b8:	48 81 ec 08 00 00 00 	sub    $0x8,%rsp
     1bf:	48 8b f1             	mov    %rcx,%rsi
     1c2:	48 8b fa             	mov    %rdx,%rdi
     1c5:	48 83 ec 38          	sub    $0x38,%rsp
     1c9:	b9 f5 ff ff ff       	mov    $0xfffffff5,%ecx
     1ce:	ff 15 00 00 00 00    	call   *0x0(%rip)        # 1d4 <main+0x1d4>
     1d4:	48 c7 44 24 20 00 00 	movq   $0x0,0x20(%rsp)
     1db:	00 00 
     1dd:	4d 31 c9             	xor    %r9,%r9
     1e0:	49 89 f8             	mov    %rdi,%r8
     1e3:	48 89 f2             	mov    %rsi,%rdx
     1e6:	48 89 c1             	mov    %rax,%rcx
     1e9:	ff 15 00 00 00 00    	call   *0x0(%rip)        # 1ef <main+0x1ef>
     1ef:	48 83 c4 38          	add    $0x38,%rsp
     1f3:	48 81 c4 08 00 00 00 	add    $0x8,%rsp
    prints(file)
     1fa:	48 8b 4d 20          	mov    0x20(%rbp),%rcx
     1fe:	48 8b c9             	mov    %rcx,%rcx
     201:	ff f1                	push   %rcx
     203:	48 8b 4d 18          	mov    0x18(%rbp),%rcx
     207:	8f c2                	pop    %rdx
     209:	48 81 ec 08 00 00 00 	sub    $0x8,%rsp
     210:	48 8b f1             	mov    %rcx,%rsi
     213:	48 8b fa             	mov    %rdx,%rdi
     216:	48 83 ec 38          	sub    $0x38,%rsp
     21a:	b9 f5 ff ff ff       	mov    $0xfffffff5,%ecx
     21f:	ff 15 00 00 00 00    	call   *0x0(%rip)        # 225 <main+0x225>
     225:	48 c7 44 24 20 00 00 	movq   $0x0,0x20(%rsp)
     22c:	00 00 
     22e:	4d 31 c9             	xor    %r9,%r9
     231:	49 89 f8             	mov    %rdi,%r8
     234:	48 89 f2             	mov    %rsi,%rdx
     237:	48 89 c1             	mov    %rax,%rcx
     23a:	ff 15 00 00 00 00    	call   *0x0(%rip)        # 240 <main+0x240>
     240:	48 83 c4 38          	add    $0x38,%rsp
     244:	48 81 c4 08 00 00 00 	add    $0x8,%rsp
    prints(":")
     24b:	b9 01 00 00 00       	mov    $0x1,%ecx
     250:	ff f1                	push   %rcx
     252:	48 8d 0d 00 00 00 00 	lea    0x0(%rip),%rcx        # 259 <main+0x259>
     259:	8f c2                	pop    %rdx
     25b:	48 81 ec 08 00 00 00 	sub    $0x8,%rsp
     262:	48 8b f1             	mov    %rcx,%rsi
     265:	48 8b fa             	mov    %rdx,%rdi
     268:	48 83 ec 38          	sub    $0x38,%rsp
     26c:	b9 f5 ff ff ff       	mov    $0xfffffff5,%ecx
     271:	ff 15 00 00 00 00    	call   *0x0(%rip)        # 277 <main+0x277>
     277:	48 c7 44 24 20 00 00 	movq   $0x0,0x20(%rsp)
     27e:	00 00 
     280:	4d 31 c9             	xor    %r9,%r9
     283:	49 89 f8             	mov    %rdi,%r8
     286:	48 89 f2             	mov    %rsi,%rdx
     289:	48 89 c1             	mov    %rax,%rcx
     28c:	ff 15 00 00 00 00    	call   *0x0(%rip)        # 292 <main+0x292>
     292:	48 83 c4 38          	add    $0x38,%rsp
     296:	48 81 c4 08 00 00 00 	add    $0x8,%rsp
    // std_print(line)
    prints("\n");
     29d:	b9 01 00 00 00       	mov    $0x1,%ecx
     2a2:	ff f1                	push   %rcx
     2a4:	48 8d 0d 00 00 00 00 	lea    0x0(%rip),%rcx        # 2ab <main+0x2ab>
     2ab:	8f c2                	pop    %rdx
     2ad:	48 81 ec 08 00 00 00 	sub    $0x8,%rsp
     2b4:	48 8b f1             	mov    %rcx,%rsi
     2b7:	48 8b fa             	mov    %rdx,%rdi
     2ba:	48 83 ec 38          	sub    $0x38,%rsp
     2be:	b9 f5 ff ff ff       	mov    $0xfffffff5,%ecx
     2c3:	ff 15 00 00 00 00    	call   *0x0(%rip)        # 2c9 <main+0x2c9>
     2c9:	48 c7 44 24 20 00 00 	movq   $0x0,0x20(%rsp)
     2d0:	00 00 
     2d2:	4d 31 c9             	xor    %r9,%r9
     2d5:	49 89 f8             	mov    %rdi,%r8
     2d8:	48 89 f2             	mov    %rsi,%rdx
     2db:	48 89 c1             	mov    %rax,%rcx
     2de:	ff 15 00 00 00 00    	call   *0x0(%rip)        # 2e4 <main+0x2e4>
     2e4:	48 83 c4 38          	add    $0x38,%rsp
     2e8:	48 81 c4 08 00 00 00 	add    $0x8,%rsp
    
    *(cast<i32*>null) = 0
     2ef:	b9 00 00 00 00       	mov    $0x0,%ecx
     2f4:	ff f1                	push   %rcx
     2f6:	b9 00 00 00 00       	mov    $0x0,%ecx
     2fb:	8f c2                	pop    %rdx
     2fd:	89 11                	mov    %edx,(%rcx)
    defer disable_asserts = false
     2ff:	b9 00 00 00 00       	mov    $0x0,%ecx
     304:	ff f1                	push   %rcx
     306:	48 8d 0d 00 00 00 00 	lea    0x0(%rip),%rcx        # 30d <main+0x30d>
     30d:	8f c2                	pop    %rdx
     30f:	88 11                	mov    %dl,(%rcx)
     311:	48 81 c4 08 00 00 00 	add    $0x8,%rsp
     318:	8f c5                	pop    %rbp
     31a:	c3                   	ret
        construct(&ptr[len])
        ptr_elem := ptr + len * sizeof T;
        len++;
        return ptr_elem;
    }
    fn add(newElement: T) -> T* {
     31b:	ff f5                	push   %rbp
     31d:	48 8b ec             	mov    %rsp,%rbp
     320:	48 81 ec 18 00 00 00 	sub    $0x18,%rsp
        if len + 1 > max {
     327:	48 8b 4d 10          	mov    0x10(%rbp),%rcx
     32b:	48 8b c9             	mov    %rcx,%rcx
     32e:	8b 51 0c             	mov    0xc(%rcx),%edx
     331:	ff f2                	push   %rdx
     333:	b9 01 00 00 00       	mov    $0x1,%ecx
     338:	8f c2                	pop    %rdx
     33a:	03 d1                	add    %ecx,%edx
     33c:	ff f2                	push   %rdx
     33e:	48 8b 4d 10          	mov    0x10(%rbp),%rcx
     342:	48 8b c9             	mov    %rcx,%rcx
     345:	8b 51 08             	mov    0x8(%rcx),%edx
     348:	8f c1                	pop    %rcx
     34a:	3b ca                	cmp    %edx,%ecx
     34c:	40 0f 9f c1          	rex setg %cl
     350:	48 0f b6 c9          	movzbq %cl,%rcx
     354:	48 83 f9 00          	cmp    $0x0,%rcx
     358:	0f 84 83 00 00 00    	je     3e1 <main+0x3e1>
            res := reserve(7 + max * 2);
     35e:	48 81 ec 18 00 00 00 	sub    $0x18,%rsp
     365:	48 8b 4d 10          	mov    0x10(%rbp),%rcx
     369:	48 8b c9             	mov    %rcx,%rcx
     36c:	ff f1                	push   %rcx
     36e:	b9 07 00 00 00       	mov    $0x7,%ecx
     373:	ff f1                	push   %rcx
     375:	48 8b 4d 10          	mov    0x10(%rbp),%rcx
     379:	48 8b c9             	mov    %rcx,%rcx
     37c:	8b 51 08             	mov    0x8(%rcx),%edx
     37f:	ff f2                	push   %rdx
     381:	b9 02 00 00 00       	mov    $0x2,%ecx
     386:	8f c2                	pop    %rdx
     388:	0f af d1             	imul   %ecx,%edx
     38b:	8f c1                	pop    %rcx
     38d:	03 ca                	add    %edx,%ecx
     38f:	89 4c 24 10          	mov    %ecx,0x10(%rsp)
     393:	8f c1                	pop    %rcx
     395:	48 89 0c 24          	mov    %rcx,(%rsp)
     399:	e8 1f 09 00 00       	call   cbd <main+0xcbd>
     39e:	48 81 c4 18 00 00 00 	add    $0x18,%rsp
     3a5:	48 8a 4c 24 d0       	rex.W mov -0x30(%rsp),%cl
     3aa:	48 0f b6 c9          	movzbq %cl,%rcx
     3ae:	88 4d f0             	mov    %cl,-0x10(%rbp)
            // res := reserve(1 + max); // small growth when debugging
            if !res {
     3b1:	48 8a 4d f0          	rex.W mov -0x10(%rbp),%cl
     3b5:	48 0f b6 c9          	movzbq %cl,%rcx
     3b9:	48 85 c9             	test   %rcx,%rcx
     3bc:	40 0f 94 c1          	rex sete %cl
     3c0:	48 0f b6 c9          	movzbq %cl,%rcx
     3c4:	48 83 f9 00          	cmp    $0x0,%rcx
     3c8:	0f 84 13 00 00 00    	je     3e1 <main+0x3e1>
                return null;
     3ce:	b9 00 00 00 00       	mov    $0x0,%ecx
     3d3:	48 89 4d f8          	mov    %rcx,-0x8(%rbp)
     3d7:	48 81 c4 18 00 00 00 	add    $0x18,%rsp
     3de:	8f c5                	pop    %rbp
     3e0:	c3                   	ret
            }
        }
        ptr[len] = newElement;
     3e1:	8b 4d 28             	mov    0x28(%rbp),%ecx
     3e4:	48 63 c9             	movslq %ecx,%rcx
     3e7:	ff f1                	push   %rcx
     3e9:	48 8a 4d 24          	rex.W mov 0x24(%rbp),%cl
     3ed:	48 0f b6 c9          	movzbq %cl,%rcx
     3f1:	ff f1                	push   %rcx
     3f3:	8b 4d 20             	mov    0x20(%rbp),%ecx
     3f6:	48 63 c9             	movslq %ecx,%rcx
     3f9:	ff f1                	push   %rcx
     3fb:	48 8b 4d 18          	mov    0x18(%rbp),%rcx
     3ff:	ff f1                	push   %rcx
     401:	48 8b 4d 10          	mov    0x10(%rbp),%rcx
     405:	48 8b c9             	mov    %rcx,%rcx
     408:	ba 00 00 00 00       	mov    $0x0,%edx
     40d:	48 03 ca             	add    %rdx,%rcx
     410:	ff f1                	push   %rcx
     412:	48 8b 4d 10          	mov    0x10(%rbp),%rcx
     416:	48 8b c9             	mov    %rcx,%rcx
     419:	8b 51 0c             	mov    0xc(%rcx),%edx
     41c:	8f c1                	pop    %rcx
     41e:	48 8b 19             	mov    (%rcx),%rbx
     421:	b9 18 00 00 00       	mov    $0x18,%ecx
     426:	48 8b c2             	mov    %rdx,%rax
     429:	48 f7 e1             	mul    %rcx
     42c:	48 8b d0             	mov    %rax,%rdx
     42f:	48 03 da             	add    %rdx,%rbx
     432:	8f c1                	pop    %rcx
     434:	48 89 0b             	mov    %rcx,(%rbx)
     437:	8f c1                	pop    %rcx
     439:	89 4b 08             	mov    %ecx,0x8(%rbx)
     43c:	8f c1                	pop    %rcx
     43e:	88 4b 0c             	mov    %cl,0xc(%rbx)
     441:	8f c1                	pop    %rcx
     443:	89 4b 10             	mov    %ecx,0x10(%rbx)
        ptr_elem := ptr + len * sizeof T;
     446:	48 8b 4d 10          	mov    0x10(%rbp),%rcx
     44a:	48 8b c9             	mov    %rcx,%rcx
     44d:	48 8b 11             	mov    (%rcx),%rdx
     450:	ff f2                	push   %rdx
     452:	48 8b 4d 10          	mov    0x10(%rbp),%rcx
     456:	48 8b c9             	mov    %rcx,%rcx
     459:	8b 51 0c             	mov    0xc(%rcx),%edx
     45c:	ff f2                	push   %rdx
     45e:	b9 18 00 00 00       	mov    $0x18,%ecx
     463:	8f c2                	pop    %rdx
     465:	0f af d1             	imul   %ecx,%edx
     468:	8f c1                	pop    %rcx
     46a:	48 03 ca             	add    %rdx,%rcx
     46d:	48 89 4d f0          	mov    %rcx,-0x10(%rbp)
        len++;
     471:	48 8b 4d 10          	mov    0x10(%rbp),%rcx
     475:	48 8b c9             	mov    %rcx,%rcx
     478:	ba 0c 00 00 00       	mov    $0xc,%edx
     47d:	48 03 ca             	add    %rdx,%rcx
     480:	8b 11                	mov    (%rcx),%edx
     482:	48 81 c2 01 00 00 00 	add    $0x1,%rdx
     489:	89 11                	mov    %edx,(%rcx)
        return ptr_elem;
     48b:	48 8b 4d f0          	mov    -0x10(%rbp),%rcx
     48f:	48 89 4d f8          	mov    %rcx,-0x8(%rbp)
     493:	48 81 c4 18 00 00 00 	add    $0x18,%rsp
     49a:	8f c5                	pop    %rbp
     49c:	c3                   	ret
    fn add(newElement: T) -> T* {
     49d:	ff f5                	push   %rbp
     49f:	48 8b ec             	mov    %rsp,%rbp
     4a2:	48 81 ec 18 00 00 00 	sub    $0x18,%rsp
        if len + 1 > max {
     4a9:	48 8b 4d 10          	mov    0x10(%rbp),%rcx
     4ad:	48 8b c9             	mov    %rcx,%rcx
     4b0:	8b 51 0c             	mov    0xc(%rcx),%edx
     4b3:	ff f2                	push   %rdx
     4b5:	b9 01 00 00 00       	mov    $0x1,%ecx
     4ba:	8f c2                	pop    %rdx
     4bc:	03 d1                	add    %ecx,%edx
     4be:	ff f2                	push   %rdx
     4c0:	48 8b 4d 10          	mov    0x10(%rbp),%rcx
     4c4:	48 8b c9             	mov    %rcx,%rcx
     4c7:	8b 51 08             	mov    0x8(%rcx),%edx
     4ca:	8f c1                	pop    %rcx
     4cc:	3b ca                	cmp    %edx,%ecx
     4ce:	40 0f 9f c1          	rex setg %cl
     4d2:	48 0f b6 c9          	movzbq %cl,%rcx
     4d6:	48 83 f9 00          	cmp    $0x0,%rcx
     4da:	0f 84 83 00 00 00    	je     563 <main+0x563>
            res := reserve(7 + max * 2);
     4e0:	48 81 ec 18 00 00 00 	sub    $0x18,%rsp
     4e7:	48 8b 4d 10          	mov    0x10(%rbp),%rcx
     4eb:	48 8b c9             	mov    %rcx,%rcx
     4ee:	ff f1                	push   %rcx
     4f0:	b9 07 00 00 00       	mov    $0x7,%ecx
     4f5:	ff f1                	push   %rcx
     4f7:	48 8b 4d 10          	mov    0x10(%rbp),%rcx
     4fb:	48 8b c9             	mov    %rcx,%rcx
     4fe:	8b 51 08             	mov    0x8(%rcx),%edx
     501:	ff f2                	push   %rdx
     503:	b9 02 00 00 00       	mov    $0x2,%ecx
     508:	8f c2                	pop    %rdx
     50a:	0f af d1             	imul   %ecx,%edx
     50d:	8f c1                	pop    %rcx
     50f:	03 ca                	add    %edx,%ecx
     511:	89 4c 24 10          	mov    %ecx,0x10(%rsp)
     515:	8f c1                	pop    %rcx
     517:	48 89 0c 24          	mov    %rcx,(%rsp)
     51b:	e8 65 13 00 00       	call   1885 <main+0x1885>
     520:	48 81 c4 18 00 00 00 	add    $0x18,%rsp
     527:	48 8a 4c 24 d0       	rex.W mov -0x30(%rsp),%cl
     52c:	48 0f b6 c9          	movzbq %cl,%rcx
     530:	88 4d f0             	mov    %cl,-0x10(%rbp)
            if !res {
     533:	48 8a 4d f0          	rex.W mov -0x10(%rbp),%cl
     537:	48 0f b6 c9          	movzbq %cl,%rcx
     53b:	48 85 c9             	test   %rcx,%rcx
     53e:	40 0f 94 c1          	rex sete %cl
     542:	48 0f b6 c9          	movzbq %cl,%rcx
     546:	48 83 f9 00          	cmp    $0x0,%rcx
     54a:	0f 84 13 00 00 00    	je     563 <main+0x563>
                return null;
     550:	b9 00 00 00 00       	mov    $0x0,%ecx
     555:	48 89 4d f8          	mov    %rcx,-0x8(%rbp)
     559:	48 81 c4 18 00 00 00 	add    $0x18,%rsp
     560:	8f c5                	pop    %rbp
     562:	c3                   	ret
        ptr[len] = newElement;
     563:	8b 4d 50             	mov    0x50(%rbp),%ecx
     566:	48 63 c9             	movslq %ecx,%rcx
     569:	ff f1                	push   %rcx
     56b:	8b 4d 4c             	mov    0x4c(%rbp),%ecx
     56e:	48 63 c9             	movslq %ecx,%rcx
     571:	ff f1                	push   %rcx
     573:	8b 4d 48             	mov    0x48(%rbp),%ecx
     576:	48 63 c9             	movslq %ecx,%rcx
     579:	ff f1                	push   %rcx
     57b:	48 8b 4d 40          	mov    0x40(%rbp),%rcx
     57f:	ff f1                	push   %rcx
     581:	8b 4d 3c             	mov    0x3c(%rbp),%ecx
     584:	48 63 c9             	movslq %ecx,%rcx
     587:	ff f1                	push   %rcx
     589:	8b 4d 38             	mov    0x38(%rbp),%ecx
     58c:	48 63 c9             	movslq %ecx,%rcx
     58f:	ff f1                	push   %rcx
     591:	48 8b 4d 30          	mov    0x30(%rbp),%rcx
     595:	ff f1                	push   %rcx
     597:	8b 4d 2c             	mov    0x2c(%rbp),%ecx
     59a:	48 63 c9             	movslq %ecx,%rcx
     59d:	ff f1                	push   %rcx
     59f:	48 8a 4d 2b          	rex.W mov 0x2b(%rbp),%cl
     5a3:	48 0f b6 c9          	movzbq %cl,%rcx
     5a7:	ff f1                	push   %rcx
     5a9:	48 8a 4d 2a          	rex.W mov 0x2a(%rbp),%cl
     5ad:	48 0f b6 c9          	movzbq %cl,%rcx
     5b1:	ff f1                	push   %rcx
     5b3:	66 8b 4d 28          	mov    0x28(%rbp),%cx
     5b7:	48 0f b7 c9          	movzwq %cx,%rcx
     5bb:	ff f1                	push   %rcx
     5bd:	48 8a 4d 20          	rex.W mov 0x20(%rbp),%cl
     5c1:	48 0f b6 c9          	movzbq %cl,%rcx
     5c5:	ff f1                	push   %rcx
     5c7:	8b 4d 1c             	mov    0x1c(%rbp),%ecx
     5ca:	48 63 c9             	movslq %ecx,%rcx
     5cd:	ff f1                	push   %rcx
     5cf:	8b 4d 18             	mov    0x18(%rbp),%ecx
     5d2:	8b c9                	mov    %ecx,%ecx
     5d4:	ff f1                	push   %rcx
     5d6:	48 8b 4d 10          	mov    0x10(%rbp),%rcx
     5da:	48 8b c9             	mov    %rcx,%rcx
     5dd:	ba 00 00 00 00       	mov    $0x0,%edx
     5e2:	48 03 ca             	add    %rdx,%rcx
     5e5:	ff f1                	push   %rcx
     5e7:	48 8b 4d 10          	mov    0x10(%rbp),%rcx
     5eb:	48 8b c9             	mov    %rcx,%rcx
     5ee:	8b 51 0c             	mov    0xc(%rcx),%edx
     5f1:	8f c1                	pop    %rcx
     5f3:	48 8b 19             	mov    (%rcx),%rbx
     5f6:	b9 40 00 00 00       	mov    $0x40,%ecx
     5fb:	48 8b c2             	mov    %rdx,%rax
     5fe:	48 f7 e1             	mul    %rcx
     601:	48 8b d0             	mov    %rax,%rdx
     604:	48 03 da             	add    %rdx,%rbx
     607:	8f c1                	pop    %rcx
     609:	89 0b                	mov    %ecx,(%rbx)
     60b:	8f c1                	pop    %rcx
     60d:	89 4b 04             	mov    %ecx,0x4(%rbx)
     610:	8f c1                	pop    %rcx
     612:	88 4b 08             	mov    %cl,0x8(%rbx)
     615:	8f c1                	pop    %rcx
     617:	66 89 4b 10          	mov    %cx,0x10(%rbx)
     61b:	8f c1                	pop    %rcx
     61d:	88 4b 12             	mov    %cl,0x12(%rbx)
     620:	8f c1                	pop    %rcx
     622:	88 4b 13             	mov    %cl,0x13(%rbx)
     625:	8f c1                	pop    %rcx
     627:	89 4b 14             	mov    %ecx,0x14(%rbx)
     62a:	8f c1                	pop    %rcx
     62c:	48 89 4b 18          	mov    %rcx,0x18(%rbx)
     630:	8f c1                	pop    %rcx
     632:	89 4b 20             	mov    %ecx,0x20(%rbx)
     635:	8f c1                	pop    %rcx
     637:	89 4b 24             	mov    %ecx,0x24(%rbx)
     63a:	8f c1                	pop    %rcx
     63c:	48 89 4b 28          	mov    %rcx,0x28(%rbx)
     640:	8f c1                	pop    %rcx
     642:	89 4b 30             	mov    %ecx,0x30(%rbx)
     645:	8f c1                	pop    %rcx
     647:	89 4b 34             	mov    %ecx,0x34(%rbx)
     64a:	8f c1                	pop    %rcx
     64c:	89 4b 38             	mov    %ecx,0x38(%rbx)
        ptr_elem := ptr + len * sizeof T;
     64f:	48 8b 4d 10          	mov    0x10(%rbp),%rcx
     653:	48 8b c9             	mov    %rcx,%rcx
     656:	48 8b 11             	mov    (%rcx),%rdx
     659:	ff f2                	push   %rdx
     65b:	48 8b 4d 10          	mov    0x10(%rbp),%rcx
     65f:	48 8b c9             	mov    %rcx,%rcx
     662:	8b 51 0c             	mov    0xc(%rcx),%edx
     665:	ff f2                	push   %rdx
     667:	b9 40 00 00 00       	mov    $0x40,%ecx
     66c:	8f c2                	pop    %rdx
     66e:	0f af d1             	imul   %ecx,%edx
     671:	8f c1                	pop    %rcx
     673:	48 03 ca             	add    %rdx,%rcx
     676:	48 89 4d f0          	mov    %rcx,-0x10(%rbp)
        len++;
     67a:	48 8b 4d 10          	mov    0x10(%rbp),%rcx
     67e:	48 8b c9             	mov    %rcx,%rcx
     681:	ba 0c 00 00 00       	mov    $0xc,%edx
     686:	48 03 ca             	add    %rdx,%rcx
     689:	8b 11                	mov    (%rcx),%edx
     68b:	48 81 c2 01 00 00 00 	add    $0x1,%rdx
     692:	89 11                	mov    %edx,(%rcx)
        return ptr_elem;
     694:	48 8b 4d f0          	mov    -0x10(%rbp),%rcx
     698:	48 89 4d f8          	mov    %rcx,-0x8(%rbp)
     69c:	48 81 c4 18 00 00 00 	add    $0x18,%rsp
     6a3:	8f c5                	pop    %rbp
     6a5:	c3                   	ret
    fn add(newElement: T) -> T* {
     6a6:	ff f5                	push   %rbp
     6a8:	48 8b ec             	mov    %rsp,%rbp
     6ab:	48 81 ec 18 00 00 00 	sub    $0x18,%rsp
        if len + 1 > max {
     6b2:	48 8b 4d 10          	mov    0x10(%rbp),%rcx
     6b6:	48 8b c9             	mov    %rcx,%rcx
     6b9:	8b 51 0c             	mov    0xc(%rcx),%edx
     6bc:	ff f2                	push   %rdx
     6be:	b9 01 00 00 00       	mov    $0x1,%ecx
     6c3:	8f c2                	pop    %rdx
     6c5:	03 d1                	add    %ecx,%edx
     6c7:	ff f2                	push   %rdx
     6c9:	48 8b 4d 10          	mov    0x10(%rbp),%rcx
     6cd:	48 8b c9             	mov    %rcx,%rcx
     6d0:	8b 51 08             	mov    0x8(%rcx),%edx
     6d3:	8f c1                	pop    %rcx
     6d5:	3b ca                	cmp    %edx,%ecx
     6d7:	40 0f 9f c1          	rex setg %cl
     6db:	48 0f b6 c9          	movzbq %cl,%rcx
     6df:	48 83 f9 00          	cmp    $0x0,%rcx
     6e3:	0f 84 83 00 00 00    	je     76c <main+0x76c>
            res := reserve(7 + max * 2);
     6e9:	48 81 ec 18 00 00 00 	sub    $0x18,%rsp
     6f0:	48 8b 4d 10          	mov    0x10(%rbp),%rcx
     6f4:	48 8b c9             	mov    %rcx,%rcx
     6f7:	ff f1                	push   %rcx
     6f9:	b9 07 00 00 00       	mov    $0x7,%ecx
     6fe:	ff f1                	push   %rcx
     700:	48 8b 4d 10          	mov    0x10(%rbp),%rcx
     704:	48 8b c9             	mov    %rcx,%rcx
     707:	8b 51 08             	mov    0x8(%rcx),%edx
     70a:	ff f2                	push   %rdx
     70c:	b9 02 00 00 00       	mov    $0x2,%ecx
     711:	8f c2                	pop    %rdx
     713:	0f af d1             	imul   %ecx,%edx
     716:	8f c1                	pop    %rcx
     718:	03 ca                	add    %edx,%ecx
     71a:	89 4c 24 10          	mov    %ecx,0x10(%rsp)
     71e:	8f c1                	pop    %rcx
     720:	48 89 0c 24          	mov    %rcx,(%rsp)
     724:	e8 53 17 00 00       	call   1e7c <main+0x1e7c>
     729:	48 81 c4 18 00 00 00 	add    $0x18,%rsp
     730:	48 8a 4c 24 d0       	rex.W mov -0x30(%rsp),%cl
     735:	48 0f b6 c9          	movzbq %cl,%rcx
     739:	88 4d f0             	mov    %cl,-0x10(%rbp)
            if !res {
     73c:	48 8a 4d f0          	rex.W mov -0x10(%rbp),%cl
     740:	48 0f b6 c9          	movzbq %cl,%rcx
     744:	48 85 c9             	test   %rcx,%rcx
     747:	40 0f 94 c1          	rex sete %cl
     74b:	48 0f b6 c9          	movzbq %cl,%rcx
     74f:	48 83 f9 00          	cmp    $0x0,%rcx
     753:	0f 84 13 00 00 00    	je     76c <main+0x76c>
                return null;
     759:	b9 00 00 00 00       	mov    $0x0,%ecx
     75e:	48 89 4d f8          	mov    %rcx,-0x8(%rbp)
     762:	48 81 c4 18 00 00 00 	add    $0x18,%rsp
     769:	8f c5                	pop    %rbp
     76b:	c3                   	ret
        ptr[len] = newElement;
     76c:	48 8a 4d 20          	rex.W mov 0x20(%rbp),%cl
     770:	48 0f be c9          	movsbq %cl,%rcx
     774:	ff f1                	push   %rcx
     776:	48 8a 4d 1f          	rex.W mov 0x1f(%rbp),%cl
     77a:	48 0f be c9          	movsbq %cl,%rcx
     77e:	ff f1                	push   %rcx
     780:	48 8a 4d 1e          	rex.W mov 0x1e(%rbp),%cl
     784:	48 0f be c9          	movsbq %cl,%rcx
     788:	ff f1                	push   %rcx
     78a:	48 8a 4d 1d          	rex.W mov 0x1d(%rbp),%cl
     78e:	48 0f be c9          	movsbq %cl,%rcx
     792:	ff f1                	push   %rcx
     794:	48 8a 4d 1c          	rex.W mov 0x1c(%rbp),%cl
     798:	48 0f b6 c9          	movzbq %cl,%rcx
     79c:	ff f1                	push   %rcx
     79e:	8b 4d 18             	mov    0x18(%rbp),%ecx
     7a1:	48 63 c9             	movslq %ecx,%rcx
     7a4:	ff f1                	push   %rcx
     7a6:	48 8b 4d 10          	mov    0x10(%rbp),%rcx
     7aa:	48 8b c9             	mov    %rcx,%rcx
     7ad:	ba 00 00 00 00       	mov    $0x0,%edx
     7b2:	48 03 ca             	add    %rdx,%rcx
     7b5:	ff f1                	push   %rcx
     7b7:	48 8b 4d 10          	mov    0x10(%rbp),%rcx
     7bb:	48 8b c9             	mov    %rcx,%rcx
     7be:	8b 51 0c             	mov    0xc(%rcx),%edx
     7c1:	8f c1                	pop    %rcx
     7c3:	48 8b 19             	mov    (%rcx),%rbx
     7c6:	b9 0c 00 00 00       	mov    $0xc,%ecx
     7cb:	48 8b c2             	mov    %rdx,%rax
     7ce:	48 f7 e1             	mul    %rcx
     7d1:	48 8b d0             	mov    %rax,%rdx
     7d4:	48 03 da             	add    %rdx,%rbx
     7d7:	8f c1                	pop    %rcx
     7d9:	89 0b                	mov    %ecx,(%rbx)
     7db:	8f c1                	pop    %rcx
     7dd:	88 4b 04             	mov    %cl,0x4(%rbx)
     7e0:	8f c1                	pop    %rcx
     7e2:	88 4b 05             	mov    %cl,0x5(%rbx)
     7e5:	8f c1                	pop    %rcx
     7e7:	88 4b 06             	mov    %cl,0x6(%rbx)
     7ea:	8f c1                	pop    %rcx
     7ec:	88 4b 07             	mov    %cl,0x7(%rbx)
     7ef:	8f c1                	pop    %rcx
     7f1:	88 4b 08             	mov    %cl,0x8(%rbx)
        ptr_elem := ptr + len * sizeof T;
     7f4:	48 8b 4d 10          	mov    0x10(%rbp),%rcx
     7f8:	48 8b c9             	mov    %rcx,%rcx
     7fb:	48 8b 11             	mov    (%rcx),%rdx
     7fe:	ff f2                	push   %rdx
     800:	48 8b 4d 10          	mov    0x10(%rbp),%rcx
     804:	48 8b c9             	mov    %rcx,%rcx
     807:	8b 51 0c             	mov    0xc(%rcx),%edx
     80a:	ff f2                	push   %rdx
     80c:	b9 0c 00 00 00       	mov    $0xc,%ecx
     811:	8f c2                	pop    %rdx
     813:	0f af d1             	imul   %ecx,%edx
     816:	8f c1                	pop    %rcx
     818:	48 03 ca             	add    %rdx,%rcx
     81b:	48 89 4d f0          	mov    %rcx,-0x10(%rbp)
        len++;
     81f:	48 8b 4d 10          	mov    0x10(%rbp),%rcx
     823:	48 8b c9             	mov    %rcx,%rcx
     826:	ba 0c 00 00 00       	mov    $0xc,%edx
     82b:	48 03 ca             	add    %rdx,%rcx
     82e:	8b 11                	mov    (%rcx),%edx
     830:	48 81 c2 01 00 00 00 	add    $0x1,%rdx
     837:	89 11                	mov    %edx,(%rcx)
        return ptr_elem;
     839:	48 8b 4d f0          	mov    -0x10(%rbp),%rcx
     83d:	48 89 4d f8          	mov    %rcx,-0x8(%rbp)
     841:	48 81 c4 18 00 00 00 	add    $0x18,%rsp
     848:	8f c5                	pop    %rbp
     84a:	c3                   	ret
            destruct(&ptr[nr])
        }
        len = 0
    }
    fn data() -> T* { return ptr }
    fn size() -> i32 { return len; }
     84b:	ff f5                	push   %rbp
     84d:	48 8b ec             	mov    %rsp,%rbp
     850:	48 81 ec 10 00 00 00 	sub    $0x10,%rsp
     857:	48 8b 4d 10          	mov    0x10(%rbp),%rcx
     85b:	48 8b c9             	mov    %rcx,%rcx
     85e:	8b 51 0c             	mov    0xc(%rcx),%edx
     861:	89 55 f8             	mov    %edx,-0x8(%rbp)
     864:	48 81 c4 10 00 00 00 	add    $0x10,%rsp
     86b:	8f c5                	pop    %rbp
     86d:	c3                   	ret
     86e:	ff f5                	push   %rbp
     870:	48 8b ec             	mov    %rsp,%rbp
     873:	48 81 ec 10 00 00 00 	sub    $0x10,%rsp
     87a:	48 8b 4d 10          	mov    0x10(%rbp),%rcx
     87e:	48 8b c9             	mov    %rcx,%rcx
     881:	8b 51 0c             	mov    0xc(%rcx),%edx
     884:	89 55 f8             	mov    %edx,-0x8(%rbp)
     887:	48 81 c4 10 00 00 00 	add    $0x10,%rsp
     88e:	8f c5                	pop    %rbp
     890:	c3                   	ret
     891:	ff f5                	push   %rbp
     893:	48 8b ec             	mov    %rsp,%rbp
     896:	48 81 ec 10 00 00 00 	sub    $0x10,%rsp
     89d:	48 8b 4d 10          	mov    0x10(%rbp),%rcx
     8a1:	48 8b c9             	mov    %rcx,%rcx
     8a4:	8b 51 0c             	mov    0xc(%rcx),%edx
     8a7:	89 55 f8             	mov    %edx,-0x8(%rbp)
     8aa:	48 81 c4 10 00 00 00 	add    $0x10,%rsp
     8b1:	8f c5                	pop    %rbp
     8b3:	c3                   	ret
     8b4:	ff f5                	push   %rbp
     8b6:	48 8b ec             	mov    %rsp,%rbp
     8b9:	48 81 ec 10 00 00 00 	sub    $0x10,%rsp
     8c0:	48 8b 4d 10          	mov    0x10(%rbp),%rcx
     8c4:	48 8b c9             	mov    %rcx,%rcx
     8c7:	8b 51 0c             	mov    0xc(%rcx),%edx
     8ca:	89 55 f8             	mov    %edx,-0x8(%rbp)
     8cd:	48 81 c4 10 00 00 00 	add    $0x10,%rsp
     8d4:	8f c5                	pop    %rbp
     8d6:	c3                   	ret
    fn sliced_unsafe() -> Slice<T> {
     8d7:	ff f5                	push   %rbp
     8d9:	48 8b ec             	mov    %rsp,%rbp
     8dc:	48 81 ec 20 00 00 00 	sub    $0x20,%rsp
        return Slice<T>{ptr, len};
     8e3:	48 8b 4d 10          	mov    0x10(%rbp),%rcx
     8e7:	48 8b c9             	mov    %rcx,%rcx
     8ea:	8b 51 0c             	mov    0xc(%rcx),%edx
     8ed:	48 63 ca             	movslq %edx,%rcx
     8f0:	ff f1                	push   %rcx
     8f2:	48 8b 4d 10          	mov    0x10(%rbp),%rcx
     8f6:	48 8b c9             	mov    %rcx,%rcx
     8f9:	48 8b 11             	mov    (%rcx),%rdx
     8fc:	48 89 55 f0          	mov    %rdx,-0x10(%rbp)
     900:	8f c1                	pop    %rcx
     902:	48 89 4d f8          	mov    %rcx,-0x8(%rbp)
     906:	48 81 c4 20 00 00 00 	add    $0x20,%rsp
     90d:	8f c5                	pop    %rbp
     90f:	c3                   	ret
    }
    fn sliced() -> Slice<T> {
     910:	ff f5                	push   %rbp
     912:	48 8b ec             	mov    %rsp,%rbp
     915:	48 81 ec 20 00 00 00 	sub    $0x20,%rsp
        return Slice<T>{ptr, len};
     91c:	48 8b 4d 10          	mov    0x10(%rbp),%rcx
     920:	48 8b c9             	mov    %rcx,%rcx
     923:	8b 51 0c             	mov    0xc(%rcx),%edx
     926:	48 63 ca             	movslq %edx,%rcx
     929:	ff f1                	push   %rcx
     92b:	48 8b 4d 10          	mov    0x10(%rbp),%rcx
     92f:	48 8b c9             	mov    %rcx,%rcx
     932:	48 8b 11             	mov    (%rcx),%rdx
     935:	48 89 55 f0          	mov    %rdx,-0x10(%rbp)
     939:	8f c1                	pop    %rcx
     93b:	48 89 4d f8          	mov    %rcx,-0x8(%rbp)
     93f:	48 81 c4 20 00 00 00 	add    $0x20,%rsp
     946:	8f c5                	pop    %rbp
     948:	c3                   	ret
        for index..len-1 {
            ptr[nr] = ptr[nr+1];
        }
        len--;
    }
    fn get(index: i32) -> T {
     949:	ff f5                	push   %rbp
     94b:	48 8b ec             	mov    %rsp,%rbp
     94e:	48 81 ec 10 00 00 00 	sub    $0x10,%rsp
        if(index >= len)
     955:	8b 4d 18             	mov    0x18(%rbp),%ecx
     958:	48 63 c9             	movslq %ecx,%rcx
     95b:	ff f1                	push   %rcx
     95d:	48 8b 4d 10          	mov    0x10(%rbp),%rcx
     961:	48 8b c9             	mov    %rcx,%rcx
     964:	8b 51 0c             	mov    0xc(%rcx),%edx
     967:	8f c1                	pop    %rcx
     969:	3b ca                	cmp    %edx,%ecx
     96b:	40 0f 9d c1          	rex setge %cl
     96f:	48 0f b6 c9          	movzbq %cl,%rcx
     973:	48 83 f9 00          	cmp    $0x0,%rcx
     977:	0f 84 10 00 00 00    	je     98d <main+0x98d>
            return T{}; // TODO: Assert instead
     97d:	48 33 c9             	xor    %rcx,%rcx
     980:	89 4d f8             	mov    %ecx,-0x8(%rbp)
     983:	48 81 c4 10 00 00 00 	add    $0x10,%rsp
     98a:	8f c5                	pop    %rbp
     98c:	c3                   	ret
        return ptr[index];
     98d:	48 8b 4d 10          	mov    0x10(%rbp),%rcx
     991:	48 8b c9             	mov    %rcx,%rcx
     994:	48 8b 11             	mov    (%rcx),%rdx
     997:	ff f2                	push   %rdx
     999:	8b 4d 18             	mov    0x18(%rbp),%ecx
     99c:	48 63 c9             	movslq %ecx,%rcx
     99f:	8f c2                	pop    %rdx
     9a1:	bb 04 00 00 00       	mov    $0x4,%ebx
     9a6:	ff f2                	push   %rdx
     9a8:	48 8b c1             	mov    %rcx,%rax
     9ab:	f7 e3                	mul    %ebx
     9ad:	48 8b c8             	mov    %rax,%rcx
     9b0:	8f c2                	pop    %rdx
     9b2:	48 03 d1             	add    %rcx,%rdx
     9b5:	8b 0a                	mov    (%rdx),%ecx
     9b7:	89 4d f8             	mov    %ecx,-0x8(%rbp)
     9ba:	48 81 c4 10 00 00 00 	add    $0x10,%rsp
     9c1:	8f c5                	pop    %rbp
     9c3:	c3                   	ret
    fn last() -> T* {
        if(len == 0)
            return null; // TODO: Assert instead
        return &ptr[len - 1];
    }
    fn get_unsafe(index: i32) -> T* {
     9c4:	ff f5                	push   %rbp
     9c6:	48 8b ec             	mov    %rsp,%rbp
     9c9:	48 81 ec 10 00 00 00 	sub    $0x10,%rsp
        if(index >= len)
     9d0:	8b 4d 18             	mov    0x18(%rbp),%ecx
     9d3:	48 63 c9             	movslq %ecx,%rcx
     9d6:	ff f1                	push   %rcx
     9d8:	48 8b 4d 10          	mov    0x10(%rbp),%rcx
     9dc:	48 8b c9             	mov    %rcx,%rcx
     9df:	8b 51 0c             	mov    0xc(%rcx),%edx
     9e2:	8f c1                	pop    %rcx
     9e4:	3b ca                	cmp    %edx,%ecx
     9e6:	40 0f 9d c1          	rex setge %cl
     9ea:	48 0f b6 c9          	movzbq %cl,%rcx
     9ee:	48 83 f9 00          	cmp    $0x0,%rcx
     9f2:	0f 84 13 00 00 00    	je     a0b <main+0xa0b>
            return null;
     9f8:	b9 00 00 00 00       	mov    $0x0,%ecx
     9fd:	48 89 4d f8          	mov    %rcx,-0x8(%rbp)
     a01:	48 81 c4 10 00 00 00 	add    $0x10,%rsp
     a08:	8f c5                	pop    %rbp
     a0a:	c3                   	ret
        return &ptr[index];
     a0b:	48 8b 4d 10          	mov    0x10(%rbp),%rcx
     a0f:	48 8b c9             	mov    %rcx,%rcx
     a12:	ba 00 00 00 00       	mov    $0x0,%edx
     a17:	48 03 ca             	add    %rdx,%rcx
     a1a:	ff f1                	push   %rcx
     a1c:	8b 4d 18             	mov    0x18(%rbp),%ecx
     a1f:	48 63 c9             	movslq %ecx,%rcx
     a22:	8f c2                	pop    %rdx
     a24:	48 8b 1a             	mov    (%rdx),%rbx
     a27:	ba 18 00 00 00       	mov    $0x18,%edx
     a2c:	48 8b fa             	mov    %rdx,%rdi
     a2f:	48 8b c1             	mov    %rcx,%rax
     a32:	48 f7 e7             	mul    %rdi
     a35:	48 8b c8             	mov    %rax,%rcx
     a38:	48 8b d7             	mov    %rdi,%rdx
     a3b:	48 03 d9             	add    %rcx,%rbx
     a3e:	48 89 5d f8          	mov    %rbx,-0x8(%rbp)
     a42:	48 81 c4 10 00 00 00 	add    $0x10,%rsp
     a49:	8f c5                	pop    %rbp
     a4b:	c3                   	ret
    fn get_unsafe(index: i32) -> T* {
     a4c:	ff f5                	push   %rbp
     a4e:	48 8b ec             	mov    %rsp,%rbp
     a51:	48 81 ec 10 00 00 00 	sub    $0x10,%rsp
        if(index >= len)
     a58:	8b 4d 18             	mov    0x18(%rbp),%ecx
     a5b:	48 63 c9             	movslq %ecx,%rcx
     a5e:	ff f1                	push   %rcx
     a60:	48 8b 4d 10          	mov    0x10(%rbp),%rcx
     a64:	48 8b c9             	mov    %rcx,%rcx
     a67:	8b 51 0c             	mov    0xc(%rcx),%edx
     a6a:	8f c1                	pop    %rcx
     a6c:	3b ca                	cmp    %edx,%ecx
     a6e:	40 0f 9d c1          	rex setge %cl
     a72:	48 0f b6 c9          	movzbq %cl,%rcx
     a76:	48 83 f9 00          	cmp    $0x0,%rcx
     a7a:	0f 84 13 00 00 00    	je     a93 <main+0xa93>
            return null;
     a80:	b9 00 00 00 00       	mov    $0x0,%ecx
     a85:	48 89 4d f8          	mov    %rcx,-0x8(%rbp)
     a89:	48 81 c4 10 00 00 00 	add    $0x10,%rsp
     a90:	8f c5                	pop    %rbp
     a92:	c3                   	ret
        return &ptr[index];
     a93:	48 8b 4d 10          	mov    0x10(%rbp),%rcx
     a97:	48 8b c9             	mov    %rcx,%rcx
     a9a:	ba 00 00 00 00       	mov    $0x0,%edx
     a9f:	48 03 ca             	add    %rdx,%rcx
     aa2:	ff f1                	push   %rcx
     aa4:	8b 4d 18             	mov    0x18(%rbp),%ecx
     aa7:	48 63 c9             	movslq %ecx,%rcx
     aaa:	8f c2                	pop    %rdx
     aac:	48 8b 1a             	mov    (%rdx),%rbx
     aaf:	ba 40 00 00 00       	mov    $0x40,%edx
     ab4:	48 8b fa             	mov    %rdx,%rdi
     ab7:	48 8b c1             	mov    %rcx,%rax
     aba:	48 f7 e7             	mul    %rdi
     abd:	48 8b c8             	mov    %rax,%rcx
     ac0:	48 8b d7             	mov    %rdi,%rdx
     ac3:	48 03 d9             	add    %rcx,%rbx
     ac6:	48 89 5d f8          	mov    %rbx,-0x8(%rbp)
     aca:	48 81 c4 10 00 00 00 	add    $0x10,%rsp
     ad1:	8f c5                	pop    %rbp
     ad3:	c3                   	ret
    fn get_unsafe(index: i32) -> T* {
     ad4:	ff f5                	push   %rbp
     ad6:	48 8b ec             	mov    %rsp,%rbp
     ad9:	48 81 ec 10 00 00 00 	sub    $0x10,%rsp
        if(index >= len)
     ae0:	8b 4d 18             	mov    0x18(%rbp),%ecx
     ae3:	48 63 c9             	movslq %ecx,%rcx
     ae6:	ff f1                	push   %rcx
     ae8:	48 8b 4d 10          	mov    0x10(%rbp),%rcx
     aec:	48 8b c9             	mov    %rcx,%rcx
     aef:	8b 51 0c             	mov    0xc(%rcx),%edx
     af2:	8f c1                	pop    %rcx
     af4:	3b ca                	cmp    %edx,%ecx
     af6:	40 0f 9d c1          	rex setge %cl
     afa:	48 0f b6 c9          	movzbq %cl,%rcx
     afe:	48 83 f9 00          	cmp    $0x0,%rcx
     b02:	0f 84 13 00 00 00    	je     b1b <main+0xb1b>
            return null;
     b08:	b9 00 00 00 00       	mov    $0x0,%ecx
     b0d:	48 89 4d f8          	mov    %rcx,-0x8(%rbp)
     b11:	48 81 c4 10 00 00 00 	add    $0x10,%rsp
     b18:	8f c5                	pop    %rbp
     b1a:	c3                   	ret
        return &ptr[index];
     b1b:	48 8b 4d 10          	mov    0x10(%rbp),%rcx
     b1f:	48 8b c9             	mov    %rcx,%rcx
     b22:	ba 00 00 00 00       	mov    $0x0,%edx
     b27:	48 03 ca             	add    %rdx,%rcx
     b2a:	ff f1                	push   %rcx
     b2c:	8b 4d 18             	mov    0x18(%rbp),%ecx
     b2f:	48 63 c9             	movslq %ecx,%rcx
     b32:	8f c2                	pop    %rdx
     b34:	48 8b 1a             	mov    (%rdx),%rbx
     b37:	ba 0c 00 00 00       	mov    $0xc,%edx
     b3c:	48 8b fa             	mov    %rdx,%rdi
     b3f:	48 8b c1             	mov    %rcx,%rax
     b42:	48 f7 e7             	mul    %rdi
     b45:	48 8b c8             	mov    %rax,%rcx
     b48:	48 8b d7             	mov    %rdi,%rdx
     b4b:	48 03 d9             	add    %rcx,%rbx
     b4e:	48 89 5d f8          	mov    %rbx,-0x8(%rbp)
     b52:	48 81 c4 10 00 00 00 	add    $0x10,%rsp
     b59:	8f c5                	pop    %rbp
     b5b:	c3                   	ret
    fn set_unsafe(index: i32, t: T*) {
        if(index >= len)
            return;
        ptr[index] = t;
    }
    fn resize(newLen: i32) -> bool {
     b5c:	ff f5                	push   %rbp
     b5e:	48 8b ec             	mov    %rsp,%rbp
     b61:	48 81 ec 18 00 00 00 	sub    $0x18,%rsp
        // TODO: destruct elements if shrinking
        if newLen > max {
     b68:	8b 4d 18             	mov    0x18(%rbp),%ecx
     b6b:	48 63 c9             	movslq %ecx,%rcx
     b6e:	ff f1                	push   %rcx
     b70:	48 8b 4d 10          	mov    0x10(%rbp),%rcx
     b74:	48 8b c9             	mov    %rcx,%rcx
     b77:	8b 51 08             	mov    0x8(%rcx),%edx
     b7a:	8f c1                	pop    %rcx
     b7c:	3b ca                	cmp    %edx,%ecx
     b7e:	40 0f 9f c1          	rex setg %cl
     b82:	48 0f b6 c9          	movzbq %cl,%rcx
     b86:	48 83 f9 00          	cmp    $0x0,%rcx
     b8a:	0f 84 5c 00 00 00    	je     bec <main+0xbec>
            if !reserve(newLen)
     b90:	48 81 ec 18 00 00 00 	sub    $0x18,%rsp
     b97:	48 8b 4d 10          	mov    0x10(%rbp),%rcx
     b9b:	48 8b c9             	mov    %rcx,%rcx
     b9e:	ff f1                	push   %rcx
     ba0:	8b 4d 18             	mov    0x18(%rbp),%ecx
     ba3:	48 63 c9             	movslq %ecx,%rcx
     ba6:	89 4c 24 10          	mov    %ecx,0x10(%rsp)
     baa:	8f c1                	pop    %rcx
     bac:	48 89 0c 24          	mov    %rcx,(%rsp)
     bb0:	e8 ff 06 00 00       	call   12b4 <main+0x12b4>
     bb5:	48 81 c4 18 00 00 00 	add    $0x18,%rsp
     bbc:	48 8a 4c 24 d0       	rex.W mov -0x30(%rsp),%cl
     bc1:	48 0f b6 c9          	movzbq %cl,%rcx
     bc5:	48 85 c9             	test   %rcx,%rcx
     bc8:	40 0f 94 c1          	rex sete %cl
     bcc:	48 0f b6 c9          	movzbq %cl,%rcx
     bd0:	48 83 f9 00          	cmp    $0x0,%rcx
     bd4:	0f 84 12 00 00 00    	je     bec <main+0xbec>
                return false;
     bda:	b9 00 00 00 00       	mov    $0x0,%ecx
     bdf:	88 4d f8             	mov    %cl,-0x8(%rbp)
     be2:	48 81 c4 18 00 00 00 	add    $0x18,%rsp
     be9:	8f c5                	pop    %rbp
     beb:	c3                   	ret
        }
        if newLen < len {
     bec:	8b 4d 18             	mov    0x18(%rbp),%ecx
     bef:	48 63 c9             	movslq %ecx,%rcx
     bf2:	ff f1                	push   %rcx
     bf4:	48 8b 4d 10          	mov    0x10(%rbp),%rcx
     bf8:	48 8b c9             	mov    %rcx,%rcx
     bfb:	8b 51 0c             	mov    0xc(%rcx),%edx
     bfe:	8f c1                	pop    %rcx
     c00:	3b ca                	cmp    %edx,%ecx
     c02:	40 0f 9c c1          	rex setl %cl
     c06:	48 0f b6 c9          	movzbq %cl,%rcx
     c0a:	48 83 f9 00          	cmp    $0x0,%rcx
     c0e:	0f 84 7c 00 00 00    	je     c90 <main+0xc90>
            for newLen..len {
     c14:	8b 4d 18             	mov    0x18(%rbp),%ecx
     c17:	48 63 c9             	movslq %ecx,%rcx
     c1a:	ff f1                	push   %rcx
     c1c:	8f c1                	pop    %rcx
     c1e:	48 81 e9 01 00 00 00 	sub    $0x1,%rcx
     c25:	89 4d f0             	mov    %ecx,-0x10(%rbp)
     c28:	48 8b 4d 10          	mov    0x10(%rbp),%rcx
     c2c:	48 8b c9             	mov    %rcx,%rcx
     c2f:	8b 51 0c             	mov    0xc(%rcx),%edx
     c32:	ff f2                	push   %rdx
     c34:	8f c1                	pop    %rcx
     c36:	8b 55 f0             	mov    -0x10(%rbp),%edx
     c39:	48 81 c2 01 00 00 00 	add    $0x1,%rdx
     c40:	89 55 f0             	mov    %edx,-0x10(%rbp)
     c43:	3b d1                	cmp    %ecx,%edx
     c45:	40 0f 9c c2          	rex setl %dl
     c49:	48 0f b6 d2          	movzbq %dl,%rdx
     c4d:	48 83 fa 00          	cmp    $0x0,%rdx
     c51:	0f 84 39 00 00 00    	je     c90 <main+0xc90>
                destruct(&ptr[nr])
     c57:	48 8b 4d 10          	mov    0x10(%rbp),%rcx
     c5b:	48 8b c9             	mov    %rcx,%rcx
     c5e:	ba 00 00 00 00       	mov    $0x0,%edx
     c63:	48 03 ca             	add    %rdx,%rcx
     c66:	ff f1                	push   %rcx
     c68:	8b 4d f0             	mov    -0x10(%rbp),%ecx
     c6b:	8f c2                	pop    %rdx
     c6d:	48 8b 1a             	mov    (%rdx),%rbx
     c70:	ba 04 00 00 00       	mov    $0x4,%edx
     c75:	48 8b fa             	mov    %rdx,%rdi
     c78:	48 8b c1             	mov    %rcx,%rax
     c7b:	48 f7 e7             	mul    %rdi
     c7e:	48 8b c8             	mov    %rax,%rcx
     c81:	48 8b d7             	mov    %rdi,%rdx
     c84:	48 03 d9             	add    %rcx,%rbx
     c87:	33 d2                	xor    %edx,%edx
     c89:	89 13                	mov    %edx,(%rbx)
     c8b:	e9 98 ff ff ff       	jmp    c28 <main+0xc28>
            }
        }
        len = newLen;
     c90:	8b 4d 18             	mov    0x18(%rbp),%ecx
     c93:	48 63 c9             	movslq %ecx,%rcx
     c96:	ff f1                	push   %rcx
     c98:	48 8b 4d 10          	mov    0x10(%rbp),%rcx
     c9c:	48 8b c9             	mov    %rcx,%rcx
     c9f:	ba 0c 00 00 00       	mov    $0xc,%edx
     ca4:	48 03 ca             	add    %rdx,%rcx
     ca7:	8f c2                	pop    %rdx
     ca9:	89 11                	mov    %edx,(%rcx)
        return true;
     cab:	b9 01 00 00 00       	mov    $0x1,%ecx
     cb0:	88 4d f8             	mov    %cl,-0x8(%rbp)
     cb3:	48 81 c4 18 00 00 00 	add    $0x18,%rsp
     cba:	8f c5                	pop    %rbp
     cbc:	c3                   	ret
    }
    // new memory is zero-initialized (DO NOT CHANGE THIS IN THE FUTURE BECAUSE CODE DEPEND ON THIS)
    fn reserve(newMax: i32) -> bool {
     cbd:	ff f5                	push   %rbp
     cbf:	48 8b ec             	mov    %rsp,%rbp
     cc2:	48 81 ec 28 00 00 00 	sub    $0x28,%rsp
        // log("newMax",newMax)
        // log("size",sizeof T)
        Assert(!is_frozen())
     cc9:	48 81 ec 28 00 00 00 	sub    $0x28,%rsp
     cd0:	48 81 ec 10 00 00 00 	sub    $0x10,%rsp
     cd7:	48 8b 4d 10          	mov    0x10(%rbp),%rcx
     cdb:	48 8b c9             	mov    %rcx,%rcx
     cde:	48 89 0c 24          	mov    %rcx,(%rsp)
     ce2:	e8 16 18 00 00       	call   24fd <main+0x24fd>
     ce7:	48 81 c4 10 00 00 00 	add    $0x10,%rsp
     cee:	48 8a 4c 24 d8       	rex.W mov -0x28(%rsp),%cl
     cf3:	48 0f b6 c9          	movzbq %cl,%rcx
     cf7:	48 85 c9             	test   %rcx,%rcx
     cfa:	40 0f 94 c1          	rex sete %cl
     cfe:	48 0f b6 c9          	movzbq %cl,%rcx
     d02:	ff f1                	push   %rcx
     d04:	b9 8d 00 00 00       	mov    $0x8d,%ecx
     d09:	ff f1                	push   %rcx
     d0b:	b9 15 00 00 00       	mov    $0x15,%ecx
     d10:	ff f1                	push   %rcx
     d12:	48 8d 0d 00 00 00 00 	lea    0x0(%rip),%rcx        # d19 <main+0xd19>
     d19:	ff f1                	push   %rcx
     d1b:	b9 0c 00 00 00       	mov    $0xc,%ecx
     d20:	ff f1                	push   %rcx
     d22:	48 8d 0d 00 00 00 00 	lea    0x0(%rip),%rcx        # d29 <main+0xd29>
     d29:	48 89 4c 24 40       	mov    %rcx,0x40(%rsp)
     d2e:	8f c1                	pop    %rcx
     d30:	48 89 4c 24 40       	mov    %rcx,0x40(%rsp)
     d35:	8f c1                	pop    %rcx
     d37:	48 89 4c 24 20       	mov    %rcx,0x20(%rsp)
     d3c:	8f c1                	pop    %rcx
     d3e:	48 89 4c 24 20       	mov    %rcx,0x20(%rsp)
     d43:	8f c1                	pop    %rcx
     d45:	89 4c 24 0c          	mov    %ecx,0xc(%rsp)
     d49:	8f c1                	pop    %rcx
     d4b:	88 0c 24             	mov    %cl,(%rsp)
     d4e:	e8 ff f2 ff ff       	call   52 <main+0x52>
     d53:	48 81 c4 28 00 00 00 	add    $0x28,%rsp
        // NOTE: We could return false instead of asserting but the intention of freeze,
        //   is to put a restriction and an expectation of no reallocations. You
        //   want an asser as soon as it happens.
        if is_frozen()
     d5a:	48 81 ec 08 00 00 00 	sub    $0x8,%rsp
     d61:	48 8b 4d 10          	mov    0x10(%rbp),%rcx
     d65:	48 8b c9             	mov    %rcx,%rcx
     d68:	48 89 0c 24          	mov    %rcx,(%rsp)
     d6c:	e8 8c 17 00 00       	call   24fd <main+0x24fd>
     d71:	48 81 c4 08 00 00 00 	add    $0x8,%rsp
     d78:	48 8a 4c 24 e0       	rex.W mov -0x20(%rsp),%cl
     d7d:	48 0f b6 c9          	movzbq %cl,%rcx
     d81:	48 83 f9 00          	cmp    $0x0,%rcx
     d85:	0f 84 12 00 00 00    	je     d9d <main+0xd9d>
            return false
     d8b:	b9 00 00 00 00       	mov    $0x0,%ecx
     d90:	88 4d f8             	mov    %cl,-0x8(%rbp)
     d93:	48 81 c4 28 00 00 00 	add    $0x28,%rsp
     d9a:	8f c5                	pop    %rbp
     d9c:	c3                   	ret
        
        if newMax==0 {
     d9d:	8b 4d 18             	mov    0x18(%rbp),%ecx
     da0:	48 63 c9             	movslq %ecx,%rcx
     da3:	ff f1                	push   %rcx
     da5:	b9 00 00 00 00       	mov    $0x0,%ecx
     daa:	8f c2                	pop    %rdx
     dac:	3b d1                	cmp    %ecx,%edx
     dae:	40 0f 94 c2          	rex sete %dl
     db2:	48 0f b6 d2          	movzbq %dl,%rdx
     db6:	48 83 fa 00          	cmp    $0x0,%rdx
     dba:	0f 84 5f 01 00 00    	je     f1f <main+0xf1f>
            // log("{",cast<u64>ptr, max, len,"}",newMax);
            if max!=0 {
     dc0:	48 8b 4d 10          	mov    0x10(%rbp),%rcx
     dc4:	48 8b c9             	mov    %rcx,%rcx
     dc7:	8b 51 08             	mov    0x8(%rcx),%edx
     dca:	ff f2                	push   %rdx
     dcc:	b9 00 00 00 00       	mov    $0x0,%ecx
     dd1:	8f c2                	pop    %rdx
     dd3:	3b d1                	cmp    %ecx,%edx
     dd5:	40 0f 95 c2          	rex setne %dl
     dd9:	48 0f b6 d2          	movzbq %dl,%rdx
     ddd:	48 83 fa 00          	cmp    $0x0,%rdx
     de1:	0f 84 d7 00 00 00    	je     ebe <main+0xebe>
                // log("oh")
                for 0..len {
     de7:	b9 00 00 00 00       	mov    $0x0,%ecx
     dec:	ff f1                	push   %rcx
     dee:	8f c1                	pop    %rcx
     df0:	48 81 e9 01 00 00 00 	sub    $0x1,%rcx
     df7:	89 4d f0             	mov    %ecx,-0x10(%rbp)
     dfa:	48 8b 4d 10          	mov    0x10(%rbp),%rcx
     dfe:	48 8b c9             	mov    %rcx,%rcx
     e01:	8b 51 0c             	mov    0xc(%rcx),%edx
     e04:	ff f2                	push   %rdx
     e06:	8f c1                	pop    %rcx
     e08:	8b 55 f0             	mov    -0x10(%rbp),%edx
     e0b:	48 81 c2 01 00 00 00 	add    $0x1,%rdx
     e12:	89 55 f0             	mov    %edx,-0x10(%rbp)
     e15:	3b d1                	cmp    %ecx,%edx
     e17:	40 0f 9c c2          	rex setl %dl
     e1b:	48 0f b6 d2          	movzbq %dl,%rdx
     e1f:	48 83 fa 00          	cmp    $0x0,%rdx
     e23:	0f 84 4c 00 00 00    	je     e75 <main+0xe75>
                    destruct(&ptr[nr])
     e29:	48 8b 4d 10          	mov    0x10(%rbp),%rcx
     e2d:	48 8b c9             	mov    %rcx,%rcx
     e30:	ba 00 00 00 00       	mov    $0x0,%edx
     e35:	48 03 ca             	add    %rdx,%rcx
     e38:	ff f1                	push   %rcx
     e3a:	8b 4d f0             	mov    -0x10(%rbp),%ecx
     e3d:	8f c2                	pop    %rdx
     e3f:	48 8b 1a             	mov    (%rdx),%rbx
     e42:	ba 18 00 00 00       	mov    $0x18,%edx
     e47:	48 8b fa             	mov    %rdx,%rdi
     e4a:	48 8b c1             	mov    %rcx,%rax
     e4d:	48 f7 e7             	mul    %rdi
     e50:	48 8b c8             	mov    %rax,%rcx
     e53:	48 8b d7             	mov    %rdi,%rdx
     e56:	48 03 d9             	add    %rcx,%rbx
     e59:	48 81 ec 08 00 00 00 	sub    $0x8,%rsp
     e60:	48 89 1c 24          	mov    %rbx,(%rsp)
     e64:	e8 fc 17 00 00       	call   2665 <main+0x2665>
     e69:	48 81 c4 08 00 00 00 	add    $0x8,%rsp
     e70:	e9 85 ff ff ff       	jmp    dfa <main+0xdfa>
                }
                bytes := max * sizeof T
     e75:	48 8b 4d 10          	mov    0x10(%rbp),%rcx
     e79:	48 8b c9             	mov    %rcx,%rcx
     e7c:	8b 51 08             	mov    0x8(%rcx),%edx
     e7f:	ff f2                	push   %rdx
     e81:	b9 18 00 00 00       	mov    $0x18,%ecx
     e86:	8f c2                	pop    %rdx
     e88:	0f af d1             	imul   %ecx,%edx
     e8b:	89 55 f0             	mov    %edx,-0x10(%rbp)
                Free(cast_unsafe<void*>ptr, bytes);
     e8e:	48 81 ec 18 00 00 00 	sub    $0x18,%rsp
     e95:	48 8b 4d 10          	mov    0x10(%rbp),%rcx
     e99:	48 8b c9             	mov    %rcx,%rcx
     e9c:	48 8b 11             	mov    (%rcx),%rdx
     e9f:	ff f2                	push   %rdx
     ea1:	8b 4d f0             	mov    -0x10(%rbp),%ecx
     ea4:	48 63 d1             	movslq %ecx,%rdx
     ea7:	48 89 54 24 10       	mov    %rdx,0x10(%rsp)
     eac:	8f c1                	pop    %rcx
     eae:	48 89 0c 24          	mov    %rcx,(%rsp)
     eb2:	e8 9a 6b 00 00       	call   7a51 <main+0x7a51>
     eb7:	48 81 c4 18 00 00 00 	add    $0x18,%rsp
                // memory_tracker.remove(cast_unsafe<void*>ptr, bytes, typeid T)
                // log("nah")
            }
            ptr = null;
     ebe:	b9 00 00 00 00       	mov    $0x0,%ecx
     ec3:	ff f1                	push   %rcx
     ec5:	48 8b 4d 10          	mov    0x10(%rbp),%rcx
     ec9:	48 8b c9             	mov    %rcx,%rcx
     ecc:	ba 00 00 00 00       	mov    $0x0,%edx
     ed1:	48 03 ca             	add    %rdx,%rcx
     ed4:	8f c2                	pop    %rdx
     ed6:	48 89 11             	mov    %rdx,(%rcx)
            max = 0;
     ed9:	b9 00 00 00 00       	mov    $0x0,%ecx
     ede:	ff f1                	push   %rcx
     ee0:	48 8b 4d 10          	mov    0x10(%rbp),%rcx
     ee4:	48 8b c9             	mov    %rcx,%rcx
     ee7:	ba 08 00 00 00       	mov    $0x8,%edx
     eec:	48 03 ca             	add    %rdx,%rcx
     eef:	8f c2                	pop    %rdx
     ef1:	89 11                	mov    %edx,(%rcx)
            len = 0;
     ef3:	b9 00 00 00 00       	mov    $0x0,%ecx
     ef8:	ff f1                	push   %rcx
     efa:	48 8b 4d 10          	mov    0x10(%rbp),%rcx
     efe:	48 8b c9             	mov    %rcx,%rcx
     f01:	ba 0c 00 00 00       	mov    $0xc,%edx
     f06:	48 03 ca             	add    %rdx,%rcx
     f09:	8f c2                	pop    %rdx
     f0b:	89 11                	mov    %edx,(%rcx)
            return true;
     f0d:	b9 01 00 00 00       	mov    $0x1,%ecx
     f12:	88 4d f8             	mov    %cl,-0x8(%rbp)
     f15:	48 81 c4 28 00 00 00 	add    $0x28,%rsp
     f1c:	8f c5                	pop    %rbp
     f1e:	c3                   	ret
        }
        // log("what",cast<u64>ptr)
        if !ptr {
     f1f:	48 8b 4d 10          	mov    0x10(%rbp),%rcx
     f23:	48 8b c9             	mov    %rcx,%rcx
     f26:	48 8b 11             	mov    (%rcx),%rdx
     f29:	48 85 d2             	test   %rdx,%rdx
     f2c:	40 0f 94 c2          	rex sete %dl
     f30:	48 0f b6 d2          	movzbq %dl,%rdx
     f34:	48 83 fa 00          	cmp    $0x0,%rdx
     f38:	0f 84 f7 00 00 00    	je     1035 <main+0x1035>
            // log("huh")
            // log("Try reserve, sizeof T =",sizeof T)
            bytes := newMax * sizeof T
     f3e:	8b 4d 18             	mov    0x18(%rbp),%ecx
     f41:	48 63 c9             	movslq %ecx,%rcx
     f44:	ff f1                	push   %rcx
     f46:	b9 18 00 00 00       	mov    $0x18,%ecx
     f4b:	8f c2                	pop    %rdx
     f4d:	0f af d1             	imul   %ecx,%edx
     f50:	89 55 f0             	mov    %edx,-0x10(%rbp)
            ptr = cast_unsafe<T*>Allocate(bytes);
     f53:	48 81 ec 08 00 00 00 	sub    $0x8,%rsp
     f5a:	8b 4d f0             	mov    -0x10(%rbp),%ecx
     f5d:	48 63 d1             	movslq %ecx,%rdx
     f60:	48 89 14 24          	mov    %rdx,(%rsp)
     f64:	e8 32 6a 00 00       	call   799b <main+0x799b>
     f69:	48 81 c4 08 00 00 00 	add    $0x8,%rsp
     f70:	48 8b 4c 24 e0       	mov    -0x20(%rsp),%rcx
     f75:	ff f1                	push   %rcx
     f77:	48 8b 4d 10          	mov    0x10(%rbp),%rcx
     f7b:	48 8b c9             	mov    %rcx,%rcx
     f7e:	ba 00 00 00 00       	mov    $0x0,%edx
     f83:	48 03 ca             	add    %rdx,%rcx
     f86:	8f c2                	pop    %rdx
     f88:	48 89 11             	mov    %rdx,(%rcx)
            // memory_tracker.add(cast_unsafe<void*>ptr, bytes, typeid T)
            memzero(cast_unsafe<void*>ptr, bytes)
     f8b:	48 8b 4d 10          	mov    0x10(%rbp),%rcx
     f8f:	48 8b c9             	mov    %rcx,%rcx
     f92:	48 8b 11             	mov    (%rcx),%rdx
     f95:	ff f2                	push   %rdx
     f97:	8b 4d f0             	mov    -0x10(%rbp),%ecx
     f9a:	48 63 d1             	movslq %ecx,%rdx
     f9d:	8f c1                	pop    %rcx
     f9f:	ff f1                	push   %rcx
     fa1:	ff f2                	push   %rdx
     fa3:	48 01 ca             	add    %rcx,%rdx
     fa6:	48 3b d1             	cmp    %rcx,%rdx
     fa9:	74 09                	je     fb4 <main+0xfb4>
     fab:	c6 01 00             	movb   $0x0,(%rcx)
     fae:	48 83 c1 01          	add    $0x1,%rcx
     fb2:	eb f2                	jmp    fa6 <main+0xfa6>
     fb4:	8f c2                	pop    %rdx
     fb6:	8f c1                	pop    %rcx
            // log("allocSize",newMax * sizeof T)
            // log("ptr",ptr)
            // Assert(ptr);
            // initialization of elements is done when adding them
            if !ptr
     fb8:	48 8b 4d 10          	mov    0x10(%rbp),%rcx
     fbc:	48 8b c9             	mov    %rcx,%rcx
     fbf:	48 8b 11             	mov    (%rcx),%rdx
     fc2:	48 85 d2             	test   %rdx,%rdx
     fc5:	40 0f 94 c2          	rex sete %dl
     fc9:	48 0f b6 d2          	movzbq %dl,%rdx
     fcd:	48 83 fa 00          	cmp    $0x0,%rdx
     fd1:	0f 84 12 00 00 00    	je     fe9 <main+0xfe9>
                return false;
     fd7:	b9 00 00 00 00       	mov    $0x0,%ecx
     fdc:	88 4d f8             	mov    %cl,-0x8(%rbp)
     fdf:	48 81 c4 28 00 00 00 	add    $0x28,%rsp
     fe6:	8f c5                	pop    %rbp
     fe8:	c3                   	ret
            len = 0;
     fe9:	b9 00 00 00 00       	mov    $0x0,%ecx
     fee:	ff f1                	push   %rcx
     ff0:	48 8b 4d 10          	mov    0x10(%rbp),%rcx
     ff4:	48 8b c9             	mov    %rcx,%rcx
     ff7:	ba 0c 00 00 00       	mov    $0xc,%edx
     ffc:	48 03 ca             	add    %rdx,%rcx
     fff:	8f c2                	pop    %rdx
    1001:	89 11                	mov    %edx,(%rcx)
            max = newMax;
    1003:	8b 4d 18             	mov    0x18(%rbp),%ecx
    1006:	48 63 c9             	movslq %ecx,%rcx
    1009:	ff f1                	push   %rcx
    100b:	48 8b 4d 10          	mov    0x10(%rbp),%rcx
    100f:	48 8b c9             	mov    %rcx,%rcx
    1012:	ba 08 00 00 00       	mov    $0x8,%edx
    1017:	48 03 ca             	add    %rdx,%rcx
    101a:	8f c2                	pop    %rdx
    101c:	89 11                	mov    %edx,(%rcx)
            return true;
    101e:	b9 01 00 00 00       	mov    $0x1,%ecx
    1023:	88 4d f8             	mov    %cl,-0x8(%rbp)
    1026:	48 81 c4 28 00 00 00 	add    $0x28,%rsp
    102d:	8f c5                	pop    %rbp
    102f:	c3                   	ret
    1030:	e9 6d 02 00 00       	jmp    12a2 <main+0x12a2>
        } else {
            if newMax < len {
    1035:	8b 4d 18             	mov    0x18(%rbp),%ecx
    1038:	48 63 c9             	movslq %ecx,%rcx
    103b:	ff f1                	push   %rcx
    103d:	48 8b 4d 10          	mov    0x10(%rbp),%rcx
    1041:	48 8b c9             	mov    %rcx,%rcx
    1044:	8b 51 0c             	mov    0xc(%rcx),%edx
    1047:	8f c1                	pop    %rcx
    1049:	3b ca                	cmp    %edx,%ecx
    104b:	40 0f 9c c1          	rex setl %cl
    104f:	48 0f b6 c9          	movzbq %cl,%rcx
    1053:	48 83 f9 00          	cmp    $0x0,%rcx
    1057:	0f 84 8f 00 00 00    	je     10ec <main+0x10ec>
                for newMax..len {
    105d:	8b 4d 18             	mov    0x18(%rbp),%ecx
    1060:	48 63 c9             	movslq %ecx,%rcx
    1063:	ff f1                	push   %rcx
    1065:	8f c1                	pop    %rcx
    1067:	48 81 e9 01 00 00 00 	sub    $0x1,%rcx
    106e:	89 4d f0             	mov    %ecx,-0x10(%rbp)
    1071:	48 8b 4d 10          	mov    0x10(%rbp),%rcx
    1075:	48 8b c9             	mov    %rcx,%rcx
    1078:	8b 51 0c             	mov    0xc(%rcx),%edx
    107b:	ff f2                	push   %rdx
    107d:	8f c1                	pop    %rcx
    107f:	8b 55 f0             	mov    -0x10(%rbp),%edx
    1082:	48 81 c2 01 00 00 00 	add    $0x1,%rdx
    1089:	89 55 f0             	mov    %edx,-0x10(%rbp)
    108c:	3b d1                	cmp    %ecx,%edx
    108e:	40 0f 9c c2          	rex setl %dl
    1092:	48 0f b6 d2          	movzbq %dl,%rdx
    1096:	48 83 fa 00          	cmp    $0x0,%rdx
    109a:	0f 84 4c 00 00 00    	je     10ec <main+0x10ec>
                    destruct(&ptr[nr])
    10a0:	48 8b 4d 10          	mov    0x10(%rbp),%rcx
    10a4:	48 8b c9             	mov    %rcx,%rcx
    10a7:	ba 00 00 00 00       	mov    $0x0,%edx
    10ac:	48 03 ca             	add    %rdx,%rcx
    10af:	ff f1                	push   %rcx
    10b1:	8b 4d f0             	mov    -0x10(%rbp),%ecx
    10b4:	8f c2                	pop    %rdx
    10b6:	48 8b 1a             	mov    (%rdx),%rbx
    10b9:	ba 18 00 00 00       	mov    $0x18,%edx
    10be:	48 8b fa             	mov    %rdx,%rdi
    10c1:	48 8b c1             	mov    %rcx,%rax
    10c4:	48 f7 e7             	mul    %rdi
    10c7:	48 8b c8             	mov    %rax,%rcx
    10ca:	48 8b d7             	mov    %rdi,%rdx
    10cd:	48 03 d9             	add    %rcx,%rbx
    10d0:	48 81 ec 08 00 00 00 	sub    $0x8,%rsp
    10d7:	48 89 1c 24          	mov    %rbx,(%rsp)
    10db:	e8 85 15 00 00       	call   2665 <main+0x2665>
    10e0:	48 81 c4 08 00 00 00 	add    $0x8,%rsp
    10e7:	e9 85 ff ff ff       	jmp    1071 <main+0x1071>
                }
            }

            new_size := newMax * sizeof T;
    10ec:	8b 4d 18             	mov    0x18(%rbp),%ecx
    10ef:	48 63 c9             	movslq %ecx,%rcx
    10f2:	ff f1                	push   %rcx
    10f4:	b9 18 00 00 00       	mov    $0x18,%ecx
    10f9:	8f c2                	pop    %rdx
    10fb:	0f af d1             	imul   %ecx,%edx
    10fe:	89 55 f0             	mov    %edx,-0x10(%rbp)
            old_size := max * sizeof T;
    1101:	48 8b 4d 10          	mov    0x10(%rbp),%rcx
    1105:	48 8b c9             	mov    %rcx,%rcx
    1108:	8b 51 08             	mov    0x8(%rcx),%edx
    110b:	ff f2                	push   %rdx
    110d:	b9 18 00 00 00       	mov    $0x18,%ecx
    1112:	8f c2                	pop    %rdx
    1114:	0f af d1             	imul   %ecx,%edx
    1117:	89 55 e8             	mov    %edx,-0x18(%rbp)
            newPtr: T* = cast_unsafe<T*>Reallocate(new_size, cast_unsafe<void*>ptr, old_size);
    111a:	48 81 ec 18 00 00 00 	sub    $0x18,%rsp
    1121:	8b 4d f0             	mov    -0x10(%rbp),%ecx
    1124:	48 63 d1             	movslq %ecx,%rdx
    1127:	ff f2                	push   %rdx
    1129:	48 8b 4d 10          	mov    0x10(%rbp),%rcx
    112d:	48 8b c9             	mov    %rcx,%rcx
    1130:	48 8b 11             	mov    (%rcx),%rdx
    1133:	ff f2                	push   %rdx
    1135:	8b 4d e8             	mov    -0x18(%rbp),%ecx
    1138:	48 63 d1             	movslq %ecx,%rdx
    113b:	48 89 54 24 20       	mov    %rdx,0x20(%rsp)
    1140:	8f c1                	pop    %rcx
    1142:	48 89 4c 24 10       	mov    %rcx,0x10(%rsp)
    1147:	8f c1                	pop    %rcx
    1149:	48 89 0c 24          	mov    %rcx,(%rsp)
    114d:	e8 a5 68 00 00       	call   79f7 <main+0x79f7>
    1152:	48 81 c4 18 00 00 00 	add    $0x18,%rsp
    1159:	48 8b 4c 24 d0       	mov    -0x30(%rsp),%rcx
    115e:	48 89 4d e0          	mov    %rcx,-0x20(%rbp)
            // memory_tracker.remove(cast_unsafe<void*>ptr, old_size, typeid T)
            // memory_tracker.add(cast_unsafe<void*>newPtr, new_size, typeid T)
            // Assert(newPtr);
            if !newPtr
    1162:	48 8b 4d e0          	mov    -0x20(%rbp),%rcx
    1166:	48 85 c9             	test   %rcx,%rcx
    1169:	40 0f 94 c1          	rex sete %cl
    116d:	48 0f b6 c9          	movzbq %cl,%rcx
    1171:	48 83 f9 00          	cmp    $0x0,%rcx
    1175:	0f 84 12 00 00 00    	je     118d <main+0x118d>
                return false;
    117b:	b9 00 00 00 00       	mov    $0x0,%ecx
    1180:	88 4d f8             	mov    %cl,-0x8(%rbp)
    1183:	48 81 c4 28 00 00 00 	add    $0x28,%rsp
    118a:	8f c5                	pop    %rbp
    118c:	c3                   	ret
            if newMax > max
    118d:	8b 4d 18             	mov    0x18(%rbp),%ecx
    1190:	48 63 c9             	movslq %ecx,%rcx
    1193:	ff f1                	push   %rcx
    1195:	48 8b 4d 10          	mov    0x10(%rbp),%rcx
    1199:	48 8b c9             	mov    %rcx,%rcx
    119c:	8b 51 08             	mov    0x8(%rcx),%edx
    119f:	8f c1                	pop    %rcx
    11a1:	3b ca                	cmp    %edx,%ecx
    11a3:	40 0f 9f c1          	rex setg %cl
    11a7:	48 0f b6 c9          	movzbq %cl,%rcx
    11ab:	48 83 f9 00          	cmp    $0x0,%rcx
    11af:	0f 84 63 00 00 00    	je     1218 <main+0x1218>
                memzero(cast_unsafe<void*>newPtr + len * sizeof T, (newMax - max) * sizeof T);
    11b5:	48 8b 4d e0          	mov    -0x20(%rbp),%rcx
    11b9:	ff f1                	push   %rcx
    11bb:	48 8b 4d 10          	mov    0x10(%rbp),%rcx
    11bf:	48 8b c9             	mov    %rcx,%rcx
    11c2:	8b 51 0c             	mov    0xc(%rcx),%edx
    11c5:	ff f2                	push   %rdx
    11c7:	b9 18 00 00 00       	mov    $0x18,%ecx
    11cc:	8f c2                	pop    %rdx
    11ce:	0f af d1             	imul   %ecx,%edx
    11d1:	8f c1                	pop    %rcx
    11d3:	48 03 ca             	add    %rdx,%rcx
    11d6:	ff f1                	push   %rcx
    11d8:	8b 4d 18             	mov    0x18(%rbp),%ecx
    11db:	48 63 c9             	movslq %ecx,%rcx
    11de:	ff f1                	push   %rcx
    11e0:	48 8b 4d 10          	mov    0x10(%rbp),%rcx
    11e4:	48 8b c9             	mov    %rcx,%rcx
    11e7:	8b 51 08             	mov    0x8(%rcx),%edx
    11ea:	8f c1                	pop    %rcx
    11ec:	2b ca                	sub    %edx,%ecx
    11ee:	ff f1                	push   %rcx
    11f0:	b9 18 00 00 00       	mov    $0x18,%ecx
    11f5:	8f c2                	pop    %rdx
    11f7:	0f af d1             	imul   %ecx,%edx
    11fa:	48 63 ca             	movslq %edx,%rcx
    11fd:	8f c2                	pop    %rdx
    11ff:	ff f2                	push   %rdx
    1201:	ff f1                	push   %rcx
    1203:	48 01 d1             	add    %rdx,%rcx
    1206:	48 3b ca             	cmp    %rdx,%rcx
    1209:	74 09                	je     1214 <main+0x1214>
    120b:	c6 02 00             	movb   $0x0,(%rdx)
    120e:	48 83 c2 01          	add    $0x1,%rdx
    1212:	eb f2                	jmp    1206 <main+0x1206>
    1214:	8f c1                	pop    %rcx
    1216:	8f c2                	pop    %rdx
            ptr = newPtr;
    1218:	48 8b 4d e0          	mov    -0x20(%rbp),%rcx
    121c:	ff f1                	push   %rcx
    121e:	48 8b 4d 10          	mov    0x10(%rbp),%rcx
    1222:	48 8b c9             	mov    %rcx,%rcx
    1225:	ba 00 00 00 00       	mov    $0x0,%edx
    122a:	48 03 ca             	add    %rdx,%rcx
    122d:	8f c2                	pop    %rdx
    122f:	48 89 11             	mov    %rdx,(%rcx)
            max = newMax;
    1232:	8b 4d 18             	mov    0x18(%rbp),%ecx
    1235:	48 63 c9             	movslq %ecx,%rcx
    1238:	ff f1                	push   %rcx
    123a:	48 8b 4d 10          	mov    0x10(%rbp),%rcx
    123e:	48 8b c9             	mov    %rcx,%rcx
    1241:	ba 08 00 00 00       	mov    $0x8,%edx
    1246:	48 03 ca             	add    %rdx,%rcx
    1249:	8f c2                	pop    %rdx
    124b:	89 11                	mov    %edx,(%rcx)
            if len > newMax {
    124d:	48 8b 4d 10          	mov    0x10(%rbp),%rcx
    1251:	48 8b c9             	mov    %rcx,%rcx
    1254:	8b 51 0c             	mov    0xc(%rcx),%edx
    1257:	ff f2                	push   %rdx
    1259:	8b 4d 18             	mov    0x18(%rbp),%ecx
    125c:	48 63 c9             	movslq %ecx,%rcx
    125f:	8f c2                	pop    %rdx
    1261:	3b d1                	cmp    %ecx,%edx
    1263:	40 0f 9f c2          	rex setg %dl
    1267:	48 0f b6 d2          	movzbq %dl,%rdx
    126b:	48 83 fa 00          	cmp    $0x0,%rdx
    126f:	0f 84 1b 00 00 00    	je     1290 <main+0x1290>
                len = newMax;
    1275:	8b 4d 18             	mov    0x18(%rbp),%ecx
    1278:	48 63 c9             	movslq %ecx,%rcx
    127b:	ff f1                	push   %rcx
    127d:	48 8b 4d 10          	mov    0x10(%rbp),%rcx
    1281:	48 8b c9             	mov    %rcx,%rcx
    1284:	ba 0c 00 00 00       	mov    $0xc,%edx
    1289:	48 03 ca             	add    %rdx,%rcx
    128c:	8f c2                	pop    %rdx
    128e:	89 11                	mov    %edx,(%rcx)
            }
            return true;
    1290:	b9 01 00 00 00       	mov    $0x1,%ecx
    1295:	88 4d f8             	mov    %cl,-0x8(%rbp)
    1298:	48 81 c4 28 00 00 00 	add    $0x28,%rsp
    129f:	8f c5                	pop    %rbp
    12a1:	c3                   	ret
        }
        return false;
    12a2:	b9 00 00 00 00       	mov    $0x0,%ecx
    12a7:	88 4d f8             	mov    %cl,-0x8(%rbp)
    12aa:	48 81 c4 28 00 00 00 	add    $0x28,%rsp
    12b1:	8f c5                	pop    %rbp
    12b3:	c3                   	ret
    fn reserve(newMax: i32) -> bool {
    12b4:	ff f5                	push   %rbp
    12b6:	48 8b ec             	mov    %rsp,%rbp
    12b9:	48 81 ec 28 00 00 00 	sub    $0x28,%rsp
        Assert(!is_frozen())
    12c0:	48 81 ec 28 00 00 00 	sub    $0x28,%rsp
    12c7:	48 81 ec 10 00 00 00 	sub    $0x10,%rsp
    12ce:	48 8b 4d 10          	mov    0x10(%rbp),%rcx
    12d2:	48 8b c9             	mov    %rcx,%rcx
    12d5:	48 89 0c 24          	mov    %rcx,(%rsp)
    12d9:	e8 79 12 00 00       	call   2557 <main+0x2557>
    12de:	48 81 c4 10 00 00 00 	add    $0x10,%rsp
    12e5:	48 8a 4c 24 d8       	rex.W mov -0x28(%rsp),%cl
    12ea:	48 0f b6 c9          	movzbq %cl,%rcx
    12ee:	48 85 c9             	test   %rcx,%rcx
    12f1:	40 0f 94 c1          	rex sete %cl
    12f5:	48 0f b6 c9          	movzbq %cl,%rcx
    12f9:	ff f1                	push   %rcx
    12fb:	b9 8d 00 00 00       	mov    $0x8d,%ecx
    1300:	ff f1                	push   %rcx
    1302:	b9 15 00 00 00       	mov    $0x15,%ecx
    1307:	ff f1                	push   %rcx
    1309:	48 8d 0d 00 00 00 00 	lea    0x0(%rip),%rcx        # 1310 <main+0x1310>
    1310:	ff f1                	push   %rcx
    1312:	b9 0c 00 00 00       	mov    $0xc,%ecx
    1317:	ff f1                	push   %rcx
    1319:	48 8d 0d 00 00 00 00 	lea    0x0(%rip),%rcx        # 1320 <main+0x1320>
    1320:	48 89 4c 24 40       	mov    %rcx,0x40(%rsp)
    1325:	8f c1                	pop    %rcx
    1327:	48 89 4c 24 40       	mov    %rcx,0x40(%rsp)
    132c:	8f c1                	pop    %rcx
    132e:	48 89 4c 24 20       	mov    %rcx,0x20(%rsp)
    1333:	8f c1                	pop    %rcx
    1335:	48 89 4c 24 20       	mov    %rcx,0x20(%rsp)
    133a:	8f c1                	pop    %rcx
    133c:	89 4c 24 0c          	mov    %ecx,0xc(%rsp)
    1340:	8f c1                	pop    %rcx
    1342:	88 0c 24             	mov    %cl,(%rsp)
    1345:	e8 08 ed ff ff       	call   52 <main+0x52>
    134a:	48 81 c4 28 00 00 00 	add    $0x28,%rsp
        if is_frozen()
    1351:	48 81 ec 08 00 00 00 	sub    $0x8,%rsp
    1358:	48 8b 4d 10          	mov    0x10(%rbp),%rcx
    135c:	48 8b c9             	mov    %rcx,%rcx
    135f:	48 89 0c 24          	mov    %rcx,(%rsp)
    1363:	e8 ef 11 00 00       	call   2557 <main+0x2557>
    1368:	48 81 c4 08 00 00 00 	add    $0x8,%rsp
    136f:	48 8a 4c 24 e0       	rex.W mov -0x20(%rsp),%cl
    1374:	48 0f b6 c9          	movzbq %cl,%rcx
    1378:	48 83 f9 00          	cmp    $0x0,%rcx
    137c:	0f 84 12 00 00 00    	je     1394 <main+0x1394>
            return false
    1382:	b9 00 00 00 00       	mov    $0x0,%ecx
    1387:	88 4d f8             	mov    %cl,-0x8(%rbp)
    138a:	48 81 c4 28 00 00 00 	add    $0x28,%rsp
    1391:	8f c5                	pop    %rbp
    1393:	c3                   	ret
        if newMax==0 {
    1394:	8b 4d 18             	mov    0x18(%rbp),%ecx
    1397:	48 63 c9             	movslq %ecx,%rcx
    139a:	ff f1                	push   %rcx
    139c:	b9 00 00 00 00       	mov    $0x0,%ecx
    13a1:	8f c2                	pop    %rdx
    13a3:	3b d1                	cmp    %ecx,%edx
    13a5:	40 0f 94 c2          	rex sete %dl
    13a9:	48 0f b6 d2          	movzbq %dl,%rdx
    13ad:	48 83 fa 00          	cmp    $0x0,%rdx
    13b1:	0f 84 4c 01 00 00    	je     1503 <main+0x1503>
            if max!=0 {
    13b7:	48 8b 4d 10          	mov    0x10(%rbp),%rcx
    13bb:	48 8b c9             	mov    %rcx,%rcx
    13be:	8b 51 08             	mov    0x8(%rcx),%edx
    13c1:	ff f2                	push   %rdx
    13c3:	b9 00 00 00 00       	mov    $0x0,%ecx
    13c8:	8f c2                	pop    %rdx
    13ca:	3b d1                	cmp    %ecx,%edx
    13cc:	40 0f 95 c2          	rex setne %dl
    13d0:	48 0f b6 d2          	movzbq %dl,%rdx
    13d4:	48 83 fa 00          	cmp    $0x0,%rdx
    13d8:	0f 84 c4 00 00 00    	je     14a2 <main+0x14a2>
                for 0..len {
    13de:	b9 00 00 00 00       	mov    $0x0,%ecx
    13e3:	ff f1                	push   %rcx
    13e5:	8f c1                	pop    %rcx
    13e7:	48 81 e9 01 00 00 00 	sub    $0x1,%rcx
    13ee:	89 4d f0             	mov    %ecx,-0x10(%rbp)
    13f1:	48 8b 4d 10          	mov    0x10(%rbp),%rcx
    13f5:	48 8b c9             	mov    %rcx,%rcx
    13f8:	8b 51 0c             	mov    0xc(%rcx),%edx
    13fb:	ff f2                	push   %rdx
    13fd:	8f c1                	pop    %rcx
    13ff:	8b 55 f0             	mov    -0x10(%rbp),%edx
    1402:	48 81 c2 01 00 00 00 	add    $0x1,%rdx
    1409:	89 55 f0             	mov    %edx,-0x10(%rbp)
    140c:	3b d1                	cmp    %ecx,%edx
    140e:	40 0f 9c c2          	rex setl %dl
    1412:	48 0f b6 d2          	movzbq %dl,%rdx
    1416:	48 83 fa 00          	cmp    $0x0,%rdx
    141a:	0f 84 39 00 00 00    	je     1459 <main+0x1459>
                    destruct(&ptr[nr])
    1420:	48 8b 4d 10          	mov    0x10(%rbp),%rcx
    1424:	48 8b c9             	mov    %rcx,%rcx
    1427:	ba 00 00 00 00       	mov    $0x0,%edx
    142c:	48 03 ca             	add    %rdx,%rcx
    142f:	ff f1                	push   %rcx
    1431:	8b 4d f0             	mov    -0x10(%rbp),%ecx
    1434:	8f c2                	pop    %rdx
    1436:	48 8b 1a             	mov    (%rdx),%rbx
    1439:	ba 04 00 00 00       	mov    $0x4,%edx
    143e:	48 8b fa             	mov    %rdx,%rdi
    1441:	48 8b c1             	mov    %rcx,%rax
    1444:	48 f7 e7             	mul    %rdi
    1447:	48 8b c8             	mov    %rax,%rcx
    144a:	48 8b d7             	mov    %rdi,%rdx
    144d:	48 03 d9             	add    %rcx,%rbx
    1450:	33 d2                	xor    %edx,%edx
    1452:	89 13                	mov    %edx,(%rbx)
    1454:	e9 98 ff ff ff       	jmp    13f1 <main+0x13f1>
                bytes := max * sizeof T
    1459:	48 8b 4d 10          	mov    0x10(%rbp),%rcx
    145d:	48 8b c9             	mov    %rcx,%rcx
    1460:	8b 51 08             	mov    0x8(%rcx),%edx
    1463:	ff f2                	push   %rdx
    1465:	b9 04 00 00 00       	mov    $0x4,%ecx
    146a:	8f c2                	pop    %rdx
    146c:	0f af d1             	imul   %ecx,%edx
    146f:	89 55 f0             	mov    %edx,-0x10(%rbp)
                Free(cast_unsafe<void*>ptr, bytes);
    1472:	48 81 ec 18 00 00 00 	sub    $0x18,%rsp
    1479:	48 8b 4d 10          	mov    0x10(%rbp),%rcx
    147d:	48 8b c9             	mov    %rcx,%rcx
    1480:	48 8b 11             	mov    (%rcx),%rdx
    1483:	ff f2                	push   %rdx
    1485:	8b 4d f0             	mov    -0x10(%rbp),%ecx
    1488:	48 63 d1             	movslq %ecx,%rdx
    148b:	48 89 54 24 10       	mov    %rdx,0x10(%rsp)
    1490:	8f c1                	pop    %rcx
    1492:	48 89 0c 24          	mov    %rcx,(%rsp)
    1496:	e8 b6 65 00 00       	call   7a51 <main+0x7a51>
    149b:	48 81 c4 18 00 00 00 	add    $0x18,%rsp
            ptr = null;
    14a2:	b9 00 00 00 00       	mov    $0x0,%ecx
    14a7:	ff f1                	push   %rcx
    14a9:	48 8b 4d 10          	mov    0x10(%rbp),%rcx
    14ad:	48 8b c9             	mov    %rcx,%rcx
    14b0:	ba 00 00 00 00       	mov    $0x0,%edx
    14b5:	48 03 ca             	add    %rdx,%rcx
    14b8:	8f c2                	pop    %rdx
    14ba:	48 89 11             	mov    %rdx,(%rcx)
            max = 0;
    14bd:	b9 00 00 00 00       	mov    $0x0,%ecx
    14c2:	ff f1                	push   %rcx
    14c4:	48 8b 4d 10          	mov    0x10(%rbp),%rcx
    14c8:	48 8b c9             	mov    %rcx,%rcx
    14cb:	ba 08 00 00 00       	mov    $0x8,%edx
    14d0:	48 03 ca             	add    %rdx,%rcx
    14d3:	8f c2                	pop    %rdx
    14d5:	89 11                	mov    %edx,(%rcx)
            len = 0;
    14d7:	b9 00 00 00 00       	mov    $0x0,%ecx
    14dc:	ff f1                	push   %rcx
    14de:	48 8b 4d 10          	mov    0x10(%rbp),%rcx
    14e2:	48 8b c9             	mov    %rcx,%rcx
    14e5:	ba 0c 00 00 00       	mov    $0xc,%edx
    14ea:	48 03 ca             	add    %rdx,%rcx
    14ed:	8f c2                	pop    %rdx
    14ef:	89 11                	mov    %edx,(%rcx)
            return true;
    14f1:	b9 01 00 00 00       	mov    $0x1,%ecx
    14f6:	88 4d f8             	mov    %cl,-0x8(%rbp)
    14f9:	48 81 c4 28 00 00 00 	add    $0x28,%rsp
    1500:	8f c5                	pop    %rbp
    1502:	c3                   	ret
        if !ptr {
    1503:	48 8b 4d 10          	mov    0x10(%rbp),%rcx
    1507:	48 8b c9             	mov    %rcx,%rcx
    150a:	48 8b 11             	mov    (%rcx),%rdx
    150d:	48 85 d2             	test   %rdx,%rdx
    1510:	40 0f 94 c2          	rex sete %dl
    1514:	48 0f b6 d2          	movzbq %dl,%rdx
    1518:	48 83 fa 00          	cmp    $0x0,%rdx
    151c:	0f 84 f7 00 00 00    	je     1619 <main+0x1619>
            bytes := newMax * sizeof T
    1522:	8b 4d 18             	mov    0x18(%rbp),%ecx
    1525:	48 63 c9             	movslq %ecx,%rcx
    1528:	ff f1                	push   %rcx
    152a:	b9 04 00 00 00       	mov    $0x4,%ecx
    152f:	8f c2                	pop    %rdx
    1531:	0f af d1             	imul   %ecx,%edx
    1534:	89 55 f0             	mov    %edx,-0x10(%rbp)
            ptr = cast_unsafe<T*>Allocate(bytes);
    1537:	48 81 ec 08 00 00 00 	sub    $0x8,%rsp
    153e:	8b 4d f0             	mov    -0x10(%rbp),%ecx
    1541:	48 63 d1             	movslq %ecx,%rdx
    1544:	48 89 14 24          	mov    %rdx,(%rsp)
    1548:	e8 4e 64 00 00       	call   799b <main+0x799b>
    154d:	48 81 c4 08 00 00 00 	add    $0x8,%rsp
    1554:	48 8b 4c 24 e0       	mov    -0x20(%rsp),%rcx
    1559:	ff f1                	push   %rcx
    155b:	48 8b 4d 10          	mov    0x10(%rbp),%rcx
    155f:	48 8b c9             	mov    %rcx,%rcx
    1562:	ba 00 00 00 00       	mov    $0x0,%edx
    1567:	48 03 ca             	add    %rdx,%rcx
    156a:	8f c2                	pop    %rdx
    156c:	48 89 11             	mov    %rdx,(%rcx)
            memzero(cast_unsafe<void*>ptr, bytes)
    156f:	48 8b 4d 10          	mov    0x10(%rbp),%rcx
    1573:	48 8b c9             	mov    %rcx,%rcx
    1576:	48 8b 11             	mov    (%rcx),%rdx
    1579:	ff f2                	push   %rdx
    157b:	8b 4d f0             	mov    -0x10(%rbp),%ecx
    157e:	48 63 d1             	movslq %ecx,%rdx
    1581:	8f c1                	pop    %rcx
    1583:	ff f1                	push   %rcx
    1585:	ff f2                	push   %rdx
    1587:	48 01 ca             	add    %rcx,%rdx
    158a:	48 3b d1             	cmp    %rcx,%rdx
    158d:	74 09                	je     1598 <main+0x1598>
    158f:	c6 01 00             	movb   $0x0,(%rcx)
    1592:	48 83 c1 01          	add    $0x1,%rcx
    1596:	eb f2                	jmp    158a <main+0x158a>
    1598:	8f c2                	pop    %rdx
    159a:	8f c1                	pop    %rcx
            if !ptr
    159c:	48 8b 4d 10          	mov    0x10(%rbp),%rcx
    15a0:	48 8b c9             	mov    %rcx,%rcx
    15a3:	48 8b 11             	mov    (%rcx),%rdx
    15a6:	48 85 d2             	test   %rdx,%rdx
    15a9:	40 0f 94 c2          	rex sete %dl
    15ad:	48 0f b6 d2          	movzbq %dl,%rdx
    15b1:	48 83 fa 00          	cmp    $0x0,%rdx
    15b5:	0f 84 12 00 00 00    	je     15cd <main+0x15cd>
                return false;
    15bb:	b9 00 00 00 00       	mov    $0x0,%ecx
    15c0:	88 4d f8             	mov    %cl,-0x8(%rbp)
    15c3:	48 81 c4 28 00 00 00 	add    $0x28,%rsp
    15ca:	8f c5                	pop    %rbp
    15cc:	c3                   	ret
            len = 0;
    15cd:	b9 00 00 00 00       	mov    $0x0,%ecx
    15d2:	ff f1                	push   %rcx
    15d4:	48 8b 4d 10          	mov    0x10(%rbp),%rcx
    15d8:	48 8b c9             	mov    %rcx,%rcx
    15db:	ba 0c 00 00 00       	mov    $0xc,%edx
    15e0:	48 03 ca             	add    %rdx,%rcx
    15e3:	8f c2                	pop    %rdx
    15e5:	89 11                	mov    %edx,(%rcx)
            max = newMax;
    15e7:	8b 4d 18             	mov    0x18(%rbp),%ecx
    15ea:	48 63 c9             	movslq %ecx,%rcx
    15ed:	ff f1                	push   %rcx
    15ef:	48 8b 4d 10          	mov    0x10(%rbp),%rcx
    15f3:	48 8b c9             	mov    %rcx,%rcx
    15f6:	ba 08 00 00 00       	mov    $0x8,%edx
    15fb:	48 03 ca             	add    %rdx,%rcx
    15fe:	8f c2                	pop    %rdx
    1600:	89 11                	mov    %edx,(%rcx)
            return true;
    1602:	b9 01 00 00 00       	mov    $0x1,%ecx
    1607:	88 4d f8             	mov    %cl,-0x8(%rbp)
    160a:	48 81 c4 28 00 00 00 	add    $0x28,%rsp
    1611:	8f c5                	pop    %rbp
    1613:	c3                   	ret
    1614:	e9 5a 02 00 00       	jmp    1873 <main+0x1873>
            if newMax < len {
    1619:	8b 4d 18             	mov    0x18(%rbp),%ecx
    161c:	48 63 c9             	movslq %ecx,%rcx
    161f:	ff f1                	push   %rcx
    1621:	48 8b 4d 10          	mov    0x10(%rbp),%rcx
    1625:	48 8b c9             	mov    %rcx,%rcx
    1628:	8b 51 0c             	mov    0xc(%rcx),%edx
    162b:	8f c1                	pop    %rcx
    162d:	3b ca                	cmp    %edx,%ecx
    162f:	40 0f 9c c1          	rex setl %cl
    1633:	48 0f b6 c9          	movzbq %cl,%rcx
    1637:	48 83 f9 00          	cmp    $0x0,%rcx
    163b:	0f 84 7c 00 00 00    	je     16bd <main+0x16bd>
                for newMax..len {
    1641:	8b 4d 18             	mov    0x18(%rbp),%ecx
    1644:	48 63 c9             	movslq %ecx,%rcx
    1647:	ff f1                	push   %rcx
    1649:	8f c1                	pop    %rcx
    164b:	48 81 e9 01 00 00 00 	sub    $0x1,%rcx
    1652:	89 4d f0             	mov    %ecx,-0x10(%rbp)
    1655:	48 8b 4d 10          	mov    0x10(%rbp),%rcx
    1659:	48 8b c9             	mov    %rcx,%rcx
    165c:	8b 51 0c             	mov    0xc(%rcx),%edx
    165f:	ff f2                	push   %rdx
    1661:	8f c1                	pop    %rcx
    1663:	8b 55 f0             	mov    -0x10(%rbp),%edx
    1666:	48 81 c2 01 00 00 00 	add    $0x1,%rdx
    166d:	89 55 f0             	mov    %edx,-0x10(%rbp)
    1670:	3b d1                	cmp    %ecx,%edx
    1672:	40 0f 9c c2          	rex setl %dl
    1676:	48 0f b6 d2          	movzbq %dl,%rdx
    167a:	48 83 fa 00          	cmp    $0x0,%rdx
    167e:	0f 84 39 00 00 00    	je     16bd <main+0x16bd>
                    destruct(&ptr[nr])
    1684:	48 8b 4d 10          	mov    0x10(%rbp),%rcx
    1688:	48 8b c9             	mov    %rcx,%rcx
    168b:	ba 00 00 00 00       	mov    $0x0,%edx
    1690:	48 03 ca             	add    %rdx,%rcx
    1693:	ff f1                	push   %rcx
    1695:	8b 4d f0             	mov    -0x10(%rbp),%ecx
    1698:	8f c2                	pop    %rdx
    169a:	48 8b 1a             	mov    (%rdx),%rbx
    169d:	ba 04 00 00 00       	mov    $0x4,%edx
    16a2:	48 8b fa             	mov    %rdx,%rdi
    16a5:	48 8b c1             	mov    %rcx,%rax
    16a8:	48 f7 e7             	mul    %rdi
    16ab:	48 8b c8             	mov    %rax,%rcx
    16ae:	48 8b d7             	mov    %rdi,%rdx
    16b1:	48 03 d9             	add    %rcx,%rbx
    16b4:	33 d2                	xor    %edx,%edx
    16b6:	89 13                	mov    %edx,(%rbx)
    16b8:	e9 98 ff ff ff       	jmp    1655 <main+0x1655>
            new_size := newMax * sizeof T;
    16bd:	8b 4d 18             	mov    0x18(%rbp),%ecx
    16c0:	48 63 c9             	movslq %ecx,%rcx
    16c3:	ff f1                	push   %rcx
    16c5:	b9 04 00 00 00       	mov    $0x4,%ecx
    16ca:	8f c2                	pop    %rdx
    16cc:	0f af d1             	imul   %ecx,%edx
    16cf:	89 55 f0             	mov    %edx,-0x10(%rbp)
            old_size := max * sizeof T;
    16d2:	48 8b 4d 10          	mov    0x10(%rbp),%rcx
    16d6:	48 8b c9             	mov    %rcx,%rcx
    16d9:	8b 51 08             	mov    0x8(%rcx),%edx
    16dc:	ff f2                	push   %rdx
    16de:	b9 04 00 00 00       	mov    $0x4,%ecx
    16e3:	8f c2                	pop    %rdx
    16e5:	0f af d1             	imul   %ecx,%edx
    16e8:	89 55 e8             	mov    %edx,-0x18(%rbp)
            newPtr: T* = cast_unsafe<T*>Reallocate(new_size, cast_unsafe<void*>ptr, old_size);
    16eb:	48 81 ec 18 00 00 00 	sub    $0x18,%rsp
    16f2:	8b 4d f0             	mov    -0x10(%rbp),%ecx
    16f5:	48 63 d1             	movslq %ecx,%rdx
    16f8:	ff f2                	push   %rdx
    16fa:	48 8b 4d 10          	mov    0x10(%rbp),%rcx
    16fe:	48 8b c9             	mov    %rcx,%rcx
    1701:	48 8b 11             	mov    (%rcx),%rdx
    1704:	ff f2                	push   %rdx
    1706:	8b 4d e8             	mov    -0x18(%rbp),%ecx
    1709:	48 63 d1             	movslq %ecx,%rdx
    170c:	48 89 54 24 20       	mov    %rdx,0x20(%rsp)
    1711:	8f c1                	pop    %rcx
    1713:	48 89 4c 24 10       	mov    %rcx,0x10(%rsp)
    1718:	8f c1                	pop    %rcx
    171a:	48 89 0c 24          	mov    %rcx,(%rsp)
    171e:	e8 d4 62 00 00       	call   79f7 <main+0x79f7>
    1723:	48 81 c4 18 00 00 00 	add    $0x18,%rsp
    172a:	48 8b 4c 24 d0       	mov    -0x30(%rsp),%rcx
    172f:	48 89 4d e0          	mov    %rcx,-0x20(%rbp)
            if !newPtr
    1733:	48 8b 4d e0          	mov    -0x20(%rbp),%rcx
    1737:	48 85 c9             	test   %rcx,%rcx
    173a:	40 0f 94 c1          	rex sete %cl
    173e:	48 0f b6 c9          	movzbq %cl,%rcx
    1742:	48 83 f9 00          	cmp    $0x0,%rcx
    1746:	0f 84 12 00 00 00    	je     175e <main+0x175e>
                return false;
    174c:	b9 00 00 00 00       	mov    $0x0,%ecx
    1751:	88 4d f8             	mov    %cl,-0x8(%rbp)
    1754:	48 81 c4 28 00 00 00 	add    $0x28,%rsp
    175b:	8f c5                	pop    %rbp
    175d:	c3                   	ret
            if newMax > max
    175e:	8b 4d 18             	mov    0x18(%rbp),%ecx
    1761:	48 63 c9             	movslq %ecx,%rcx
    1764:	ff f1                	push   %rcx
    1766:	48 8b 4d 10          	mov    0x10(%rbp),%rcx
    176a:	48 8b c9             	mov    %rcx,%rcx
    176d:	8b 51 08             	mov    0x8(%rcx),%edx
    1770:	8f c1                	pop    %rcx
    1772:	3b ca                	cmp    %edx,%ecx
    1774:	40 0f 9f c1          	rex setg %cl
    1778:	48 0f b6 c9          	movzbq %cl,%rcx
    177c:	48 83 f9 00          	cmp    $0x0,%rcx
    1780:	0f 84 63 00 00 00    	je     17e9 <main+0x17e9>
                memzero(cast_unsafe<void*>newPtr + len * sizeof T, (newMax - max) * sizeof T);
    1786:	48 8b 4d e0          	mov    -0x20(%rbp),%rcx
    178a:	ff f1                	push   %rcx
    178c:	48 8b 4d 10          	mov    0x10(%rbp),%rcx
    1790:	48 8b c9             	mov    %rcx,%rcx
    1793:	8b 51 0c             	mov    0xc(%rcx),%edx
    1796:	ff f2                	push   %rdx
    1798:	b9 04 00 00 00       	mov    $0x4,%ecx
    179d:	8f c2                	pop    %rdx
    179f:	0f af d1             	imul   %ecx,%edx
    17a2:	8f c1                	pop    %rcx
    17a4:	48 03 ca             	add    %rdx,%rcx
    17a7:	ff f1                	push   %rcx
    17a9:	8b 4d 18             	mov    0x18(%rbp),%ecx
    17ac:	48 63 c9             	movslq %ecx,%rcx
    17af:	ff f1                	push   %rcx
    17b1:	48 8b 4d 10          	mov    0x10(%rbp),%rcx
    17b5:	48 8b c9             	mov    %rcx,%rcx
    17b8:	8b 51 08             	mov    0x8(%rcx),%edx
    17bb:	8f c1                	pop    %rcx
    17bd:	2b ca                	sub    %edx,%ecx
    17bf:	ff f1                	push   %rcx
    17c1:	b9 04 00 00 00       	mov    $0x4,%ecx
    17c6:	8f c2                	pop    %rdx
    17c8:	0f af d1             	imul   %ecx,%edx
    17cb:	48 63 ca             	movslq %edx,%rcx
    17ce:	8f c2                	pop    %rdx
    17d0:	ff f2                	push   %rdx
    17d2:	ff f1                	push   %rcx
    17d4:	48 01 d1             	add    %rdx,%rcx
    17d7:	48 3b ca             	cmp    %rdx,%rcx
    17da:	74 09                	je     17e5 <main+0x17e5>
    17dc:	c6 02 00             	movb   $0x0,(%rdx)
    17df:	48 83 c2 01          	add    $0x1,%rdx
    17e3:	eb f2                	jmp    17d7 <main+0x17d7>
    17e5:	8f c1                	pop    %rcx
    17e7:	8f c2                	pop    %rdx
            ptr = newPtr;
    17e9:	48 8b 4d e0          	mov    -0x20(%rbp),%rcx
    17ed:	ff f1                	push   %rcx
    17ef:	48 8b 4d 10          	mov    0x10(%rbp),%rcx
    17f3:	48 8b c9             	mov    %rcx,%rcx
    17f6:	ba 00 00 00 00       	mov    $0x0,%edx
    17fb:	48 03 ca             	add    %rdx,%rcx
    17fe:	8f c2                	pop    %rdx
    1800:	48 89 11             	mov    %rdx,(%rcx)
            max = newMax;
    1803:	8b 4d 18             	mov    0x18(%rbp),%ecx
    1806:	48 63 c9             	movslq %ecx,%rcx
    1809:	ff f1                	push   %rcx
    180b:	48 8b 4d 10          	mov    0x10(%rbp),%rcx
    180f:	48 8b c9             	mov    %rcx,%rcx
    1812:	ba 08 00 00 00       	mov    $0x8,%edx
    1817:	48 03 ca             	add    %rdx,%rcx
    181a:	8f c2                	pop    %rdx
    181c:	89 11                	mov    %edx,(%rcx)
            if len > newMax {
    181e:	48 8b 4d 10          	mov    0x10(%rbp),%rcx
    1822:	48 8b c9             	mov    %rcx,%rcx
    1825:	8b 51 0c             	mov    0xc(%rcx),%edx
    1828:	ff f2                	push   %rdx
    182a:	8b 4d 18             	mov    0x18(%rbp),%ecx
    182d:	48 63 c9             	movslq %ecx,%rcx
    1830:	8f c2                	pop    %rdx
    1832:	3b d1                	cmp    %ecx,%edx
    1834:	40 0f 9f c2          	rex setg %dl
    1838:	48 0f b6 d2          	movzbq %dl,%rdx
    183c:	48 83 fa 00          	cmp    $0x0,%rdx
    1840:	0f 84 1b 00 00 00    	je     1861 <main+0x1861>
                len = newMax;
    1846:	8b 4d 18             	mov    0x18(%rbp),%ecx
    1849:	48 63 c9             	movslq %ecx,%rcx
    184c:	ff f1                	push   %rcx
    184e:	48 8b 4d 10          	mov    0x10(%rbp),%rcx
    1852:	48 8b c9             	mov    %rcx,%rcx
    1855:	ba 0c 00 00 00       	mov    $0xc,%edx
    185a:	48 03 ca             	add    %rdx,%rcx
    185d:	8f c2                	pop    %rdx
    185f:	89 11                	mov    %edx,(%rcx)
            return true;
    1861:	b9 01 00 00 00       	mov    $0x1,%ecx
    1866:	88 4d f8             	mov    %cl,-0x8(%rbp)
    1869:	48 81 c4 28 00 00 00 	add    $0x28,%rsp
    1870:	8f c5                	pop    %rbp
    1872:	c3                   	ret
        return false;
    1873:	b9 00 00 00 00       	mov    $0x0,%ecx
    1878:	88 4d f8             	mov    %cl,-0x8(%rbp)
    187b:	48 81 c4 28 00 00 00 	add    $0x28,%rsp
    1882:	8f c5                	pop    %rbp
    1884:	c3                   	ret
    fn reserve(newMax: i32) -> bool {
    1885:	ff f5                	push   %rbp
    1887:	48 8b ec             	mov    %rsp,%rbp
    188a:	48 81 ec 28 00 00 00 	sub    $0x28,%rsp
        Assert(!is_frozen())
    1891:	48 81 ec 28 00 00 00 	sub    $0x28,%rsp
    1898:	48 81 ec 10 00 00 00 	sub    $0x10,%rsp
    189f:	48 8b 4d 10          	mov    0x10(%rbp),%rcx
    18a3:	48 8b c9             	mov    %rcx,%rcx
    18a6:	48 89 0c 24          	mov    %rcx,(%rsp)
    18aa:	e8 02 0d 00 00       	call   25b1 <main+0x25b1>
    18af:	48 81 c4 10 00 00 00 	add    $0x10,%rsp
    18b6:	48 8a 4c 24 d8       	rex.W mov -0x28(%rsp),%cl
    18bb:	48 0f b6 c9          	movzbq %cl,%rcx
    18bf:	48 85 c9             	test   %rcx,%rcx
    18c2:	40 0f 94 c1          	rex sete %cl
    18c6:	48 0f b6 c9          	movzbq %cl,%rcx
    18ca:	ff f1                	push   %rcx
    18cc:	b9 8d 00 00 00       	mov    $0x8d,%ecx
    18d1:	ff f1                	push   %rcx
    18d3:	b9 15 00 00 00       	mov    $0x15,%ecx
    18d8:	ff f1                	push   %rcx
    18da:	48 8d 0d 00 00 00 00 	lea    0x0(%rip),%rcx        # 18e1 <main+0x18e1>
    18e1:	ff f1                	push   %rcx
    18e3:	b9 0c 00 00 00       	mov    $0xc,%ecx
    18e8:	ff f1                	push   %rcx
    18ea:	48 8d 0d 00 00 00 00 	lea    0x0(%rip),%rcx        # 18f1 <main+0x18f1>
    18f1:	48 89 4c 24 40       	mov    %rcx,0x40(%rsp)
    18f6:	8f c1                	pop    %rcx
    18f8:	48 89 4c 24 40       	mov    %rcx,0x40(%rsp)
    18fd:	8f c1                	pop    %rcx
    18ff:	48 89 4c 24 20       	mov    %rcx,0x20(%rsp)
    1904:	8f c1                	pop    %rcx
    1906:	48 89 4c 24 20       	mov    %rcx,0x20(%rsp)
    190b:	8f c1                	pop    %rcx
    190d:	89 4c 24 0c          	mov    %ecx,0xc(%rsp)
    1911:	8f c1                	pop    %rcx
    1913:	88 0c 24             	mov    %cl,(%rsp)
    1916:	e8 37 e7 ff ff       	call   52 <main+0x52>
    191b:	48 81 c4 28 00 00 00 	add    $0x28,%rsp
        if is_frozen()
    1922:	48 81 ec 08 00 00 00 	sub    $0x8,%rsp
    1929:	48 8b 4d 10          	mov    0x10(%rbp),%rcx
    192d:	48 8b c9             	mov    %rcx,%rcx
    1930:	48 89 0c 24          	mov    %rcx,(%rsp)
    1934:	e8 78 0c 00 00       	call   25b1 <main+0x25b1>
    1939:	48 81 c4 08 00 00 00 	add    $0x8,%rsp
    1940:	48 8a 4c 24 e0       	rex.W mov -0x20(%rsp),%cl
    1945:	48 0f b6 c9          	movzbq %cl,%rcx
    1949:	48 83 f9 00          	cmp    $0x0,%rcx
    194d:	0f 84 12 00 00 00    	je     1965 <main+0x1965>
            return false
    1953:	b9 00 00 00 00       	mov    $0x0,%ecx
    1958:	88 4d f8             	mov    %cl,-0x8(%rbp)
    195b:	48 81 c4 28 00 00 00 	add    $0x28,%rsp
    1962:	8f c5                	pop    %rbp
    1964:	c3                   	ret
        if newMax==0 {
    1965:	8b 4d 18             	mov    0x18(%rbp),%ecx
    1968:	48 63 c9             	movslq %ecx,%rcx
    196b:	ff f1                	push   %rcx
    196d:	b9 00 00 00 00       	mov    $0x0,%ecx
    1972:	8f c2                	pop    %rdx
    1974:	3b d1                	cmp    %ecx,%edx
    1976:	40 0f 94 c2          	rex sete %dl
    197a:	48 0f b6 d2          	movzbq %dl,%rdx
    197e:	48 83 fa 00          	cmp    $0x0,%rdx
    1982:	0f 84 5f 01 00 00    	je     1ae7 <main+0x1ae7>
            if max!=0 {
    1988:	48 8b 4d 10          	mov    0x10(%rbp),%rcx
    198c:	48 8b c9             	mov    %rcx,%rcx
    198f:	8b 51 08             	mov    0x8(%rcx),%edx
    1992:	ff f2                	push   %rdx
    1994:	b9 00 00 00 00       	mov    $0x0,%ecx
    1999:	8f c2                	pop    %rdx
    199b:	3b d1                	cmp    %ecx,%edx
    199d:	40 0f 95 c2          	rex setne %dl
    19a1:	48 0f b6 d2          	movzbq %dl,%rdx
    19a5:	48 83 fa 00          	cmp    $0x0,%rdx
    19a9:	0f 84 d7 00 00 00    	je     1a86 <main+0x1a86>
                for 0..len {
    19af:	b9 00 00 00 00       	mov    $0x0,%ecx
    19b4:	ff f1                	push   %rcx
    19b6:	8f c1                	pop    %rcx
    19b8:	48 81 e9 01 00 00 00 	sub    $0x1,%rcx
    19bf:	89 4d f0             	mov    %ecx,-0x10(%rbp)
    19c2:	48 8b 4d 10          	mov    0x10(%rbp),%rcx
    19c6:	48 8b c9             	mov    %rcx,%rcx
    19c9:	8b 51 0c             	mov    0xc(%rcx),%edx
    19cc:	ff f2                	push   %rdx
    19ce:	8f c1                	pop    %rcx
    19d0:	8b 55 f0             	mov    -0x10(%rbp),%edx
    19d3:	48 81 c2 01 00 00 00 	add    $0x1,%rdx
    19da:	89 55 f0             	mov    %edx,-0x10(%rbp)
    19dd:	3b d1                	cmp    %ecx,%edx
    19df:	40 0f 9c c2          	rex setl %dl
    19e3:	48 0f b6 d2          	movzbq %dl,%rdx
    19e7:	48 83 fa 00          	cmp    $0x0,%rdx
    19eb:	0f 84 4c 00 00 00    	je     1a3d <main+0x1a3d>
                    destruct(&ptr[nr])
    19f1:	48 8b 4d 10          	mov    0x10(%rbp),%rcx
    19f5:	48 8b c9             	mov    %rcx,%rcx
    19f8:	ba 00 00 00 00       	mov    $0x0,%edx
    19fd:	48 03 ca             	add    %rdx,%rcx
    1a00:	ff f1                	push   %rcx
    1a02:	8b 4d f0             	mov    -0x10(%rbp),%ecx
    1a05:	8f c2                	pop    %rdx
    1a07:	48 8b 1a             	mov    (%rdx),%rbx
    1a0a:	ba 40 00 00 00       	mov    $0x40,%edx
    1a0f:	48 8b fa             	mov    %rdx,%rdi
    1a12:	48 8b c1             	mov    %rcx,%rax
    1a15:	48 f7 e7             	mul    %rdi
    1a18:	48 8b c8             	mov    %rax,%rcx
    1a1b:	48 8b d7             	mov    %rdi,%rdx
    1a1e:	48 03 d9             	add    %rcx,%rbx
    1a21:	48 81 ec 08 00 00 00 	sub    $0x8,%rsp
    1a28:	48 89 1c 24          	mov    %rbx,(%rsp)
    1a2c:	e8 34 0c 00 00       	call   2665 <main+0x2665>
    1a31:	48 81 c4 08 00 00 00 	add    $0x8,%rsp
    1a38:	e9 85 ff ff ff       	jmp    19c2 <main+0x19c2>
                bytes := max * sizeof T
    1a3d:	48 8b 4d 10          	mov    0x10(%rbp),%rcx
    1a41:	48 8b c9             	mov    %rcx,%rcx
    1a44:	8b 51 08             	mov    0x8(%rcx),%edx
    1a47:	ff f2                	push   %rdx
    1a49:	b9 40 00 00 00       	mov    $0x40,%ecx
    1a4e:	8f c2                	pop    %rdx
    1a50:	0f af d1             	imul   %ecx,%edx
    1a53:	89 55 f0             	mov    %edx,-0x10(%rbp)
                Free(cast_unsafe<void*>ptr, bytes);
    1a56:	48 81 ec 18 00 00 00 	sub    $0x18,%rsp
    1a5d:	48 8b 4d 10          	mov    0x10(%rbp),%rcx
    1a61:	48 8b c9             	mov    %rcx,%rcx
    1a64:	48 8b 11             	mov    (%rcx),%rdx
    1a67:	ff f2                	push   %rdx
    1a69:	8b 4d f0             	mov    -0x10(%rbp),%ecx
    1a6c:	48 63 d1             	movslq %ecx,%rdx
    1a6f:	48 89 54 24 10       	mov    %rdx,0x10(%rsp)
    1a74:	8f c1                	pop    %rcx
    1a76:	48 89 0c 24          	mov    %rcx,(%rsp)
    1a7a:	e8 d2 5f 00 00       	call   7a51 <main+0x7a51>
    1a7f:	48 81 c4 18 00 00 00 	add    $0x18,%rsp
            ptr = null;
    1a86:	b9 00 00 00 00       	mov    $0x0,%ecx
    1a8b:	ff f1                	push   %rcx
    1a8d:	48 8b 4d 10          	mov    0x10(%rbp),%rcx
    1a91:	48 8b c9             	mov    %rcx,%rcx
    1a94:	ba 00 00 00 00       	mov    $0x0,%edx
    1a99:	48 03 ca             	add    %rdx,%rcx
    1a9c:	8f c2                	pop    %rdx
    1a9e:	48 89 11             	mov    %rdx,(%rcx)
            max = 0;
    1aa1:	b9 00 00 00 00       	mov    $0x0,%ecx
    1aa6:	ff f1                	push   %rcx
    1aa8:	48 8b 4d 10          	mov    0x10(%rbp),%rcx
    1aac:	48 8b c9             	mov    %rcx,%rcx
    1aaf:	ba 08 00 00 00       	mov    $0x8,%edx
    1ab4:	48 03 ca             	add    %rdx,%rcx
    1ab7:	8f c2                	pop    %rdx
    1ab9:	89 11                	mov    %edx,(%rcx)
            len = 0;
    1abb:	b9 00 00 00 00       	mov    $0x0,%ecx
    1ac0:	ff f1                	push   %rcx
    1ac2:	48 8b 4d 10          	mov    0x10(%rbp),%rcx
    1ac6:	48 8b c9             	mov    %rcx,%rcx
    1ac9:	ba 0c 00 00 00       	mov    $0xc,%edx
    1ace:	48 03 ca             	add    %rdx,%rcx
    1ad1:	8f c2                	pop    %rdx
    1ad3:	89 11                	mov    %edx,(%rcx)
            return true;
    1ad5:	b9 01 00 00 00       	mov    $0x1,%ecx
    1ada:	88 4d f8             	mov    %cl,-0x8(%rbp)
    1add:	48 81 c4 28 00 00 00 	add    $0x28,%rsp
    1ae4:	8f c5                	pop    %rbp
    1ae6:	c3                   	ret
        if !ptr {
    1ae7:	48 8b 4d 10          	mov    0x10(%rbp),%rcx
    1aeb:	48 8b c9             	mov    %rcx,%rcx
    1aee:	48 8b 11             	mov    (%rcx),%rdx
    1af1:	48 85 d2             	test   %rdx,%rdx
    1af4:	40 0f 94 c2          	rex sete %dl
    1af8:	48 0f b6 d2          	movzbq %dl,%rdx
    1afc:	48 83 fa 00          	cmp    $0x0,%rdx
    1b00:	0f 84 f7 00 00 00    	je     1bfd <main+0x1bfd>
            bytes := newMax * sizeof T
    1b06:	8b 4d 18             	mov    0x18(%rbp),%ecx
    1b09:	48 63 c9             	movslq %ecx,%rcx
    1b0c:	ff f1                	push   %rcx
    1b0e:	b9 40 00 00 00       	mov    $0x40,%ecx
    1b13:	8f c2                	pop    %rdx
    1b15:	0f af d1             	imul   %ecx,%edx
    1b18:	89 55 f0             	mov    %edx,-0x10(%rbp)
            ptr = cast_unsafe<T*>Allocate(bytes);
    1b1b:	48 81 ec 08 00 00 00 	sub    $0x8,%rsp
    1b22:	8b 4d f0             	mov    -0x10(%rbp),%ecx
    1b25:	48 63 d1             	movslq %ecx,%rdx
    1b28:	48 89 14 24          	mov    %rdx,(%rsp)
    1b2c:	e8 6a 5e 00 00       	call   799b <main+0x799b>
    1b31:	48 81 c4 08 00 00 00 	add    $0x8,%rsp
    1b38:	48 8b 4c 24 e0       	mov    -0x20(%rsp),%rcx
    1b3d:	ff f1                	push   %rcx
    1b3f:	48 8b 4d 10          	mov    0x10(%rbp),%rcx
    1b43:	48 8b c9             	mov    %rcx,%rcx
    1b46:	ba 00 00 00 00       	mov    $0x0,%edx
    1b4b:	48 03 ca             	add    %rdx,%rcx
    1b4e:	8f c2                	pop    %rdx
    1b50:	48 89 11             	mov    %rdx,(%rcx)
            memzero(cast_unsafe<void*>ptr, bytes)
    1b53:	48 8b 4d 10          	mov    0x10(%rbp),%rcx
    1b57:	48 8b c9             	mov    %rcx,%rcx
    1b5a:	48 8b 11             	mov    (%rcx),%rdx
    1b5d:	ff f2                	push   %rdx
    1b5f:	8b 4d f0             	mov    -0x10(%rbp),%ecx
    1b62:	48 63 d1             	movslq %ecx,%rdx
    1b65:	8f c1                	pop    %rcx
    1b67:	ff f1                	push   %rcx
    1b69:	ff f2                	push   %rdx
    1b6b:	48 01 ca             	add    %rcx,%rdx
    1b6e:	48 3b d1             	cmp    %rcx,%rdx
    1b71:	74 09                	je     1b7c <main+0x1b7c>
    1b73:	c6 01 00             	movb   $0x0,(%rcx)
    1b76:	48 83 c1 01          	add    $0x1,%rcx
    1b7a:	eb f2                	jmp    1b6e <main+0x1b6e>
    1b7c:	8f c2                	pop    %rdx
    1b7e:	8f c1                	pop    %rcx
            if !ptr
    1b80:	48 8b 4d 10          	mov    0x10(%rbp),%rcx
    1b84:	48 8b c9             	mov    %rcx,%rcx
    1b87:	48 8b 11             	mov    (%rcx),%rdx
    1b8a:	48 85 d2             	test   %rdx,%rdx
    1b8d:	40 0f 94 c2          	rex sete %dl
    1b91:	48 0f b6 d2          	movzbq %dl,%rdx
    1b95:	48 83 fa 00          	cmp    $0x0,%rdx
    1b99:	0f 84 12 00 00 00    	je     1bb1 <main+0x1bb1>
                return false;
    1b9f:	b9 00 00 00 00       	mov    $0x0,%ecx
    1ba4:	88 4d f8             	mov    %cl,-0x8(%rbp)
    1ba7:	48 81 c4 28 00 00 00 	add    $0x28,%rsp
    1bae:	8f c5                	pop    %rbp
    1bb0:	c3                   	ret
            len = 0;
    1bb1:	b9 00 00 00 00       	mov    $0x0,%ecx
    1bb6:	ff f1                	push   %rcx
    1bb8:	48 8b 4d 10          	mov    0x10(%rbp),%rcx
    1bbc:	48 8b c9             	mov    %rcx,%rcx
    1bbf:	ba 0c 00 00 00       	mov    $0xc,%edx
    1bc4:	48 03 ca             	add    %rdx,%rcx
    1bc7:	8f c2                	pop    %rdx
    1bc9:	89 11                	mov    %edx,(%rcx)
            max = newMax;
    1bcb:	8b 4d 18             	mov    0x18(%rbp),%ecx
    1bce:	48 63 c9             	movslq %ecx,%rcx
    1bd1:	ff f1                	push   %rcx
    1bd3:	48 8b 4d 10          	mov    0x10(%rbp),%rcx
    1bd7:	48 8b c9             	mov    %rcx,%rcx
    1bda:	ba 08 00 00 00       	mov    $0x8,%edx
    1bdf:	48 03 ca             	add    %rdx,%rcx
    1be2:	8f c2                	pop    %rdx
    1be4:	89 11                	mov    %edx,(%rcx)
            return true;
    1be6:	b9 01 00 00 00       	mov    $0x1,%ecx
    1beb:	88 4d f8             	mov    %cl,-0x8(%rbp)
    1bee:	48 81 c4 28 00 00 00 	add    $0x28,%rsp
    1bf5:	8f c5                	pop    %rbp
    1bf7:	c3                   	ret
    1bf8:	e9 6d 02 00 00       	jmp    1e6a <main+0x1e6a>
            if newMax < len {
    1bfd:	8b 4d 18             	mov    0x18(%rbp),%ecx
    1c00:	48 63 c9             	movslq %ecx,%rcx
    1c03:	ff f1                	push   %rcx
    1c05:	48 8b 4d 10          	mov    0x10(%rbp),%rcx
    1c09:	48 8b c9             	mov    %rcx,%rcx
    1c0c:	8b 51 0c             	mov    0xc(%rcx),%edx
    1c0f:	8f c1                	pop    %rcx
    1c11:	3b ca                	cmp    %edx,%ecx
    1c13:	40 0f 9c c1          	rex setl %cl
    1c17:	48 0f b6 c9          	movzbq %cl,%rcx
    1c1b:	48 83 f9 00          	cmp    $0x0,%rcx
    1c1f:	0f 84 8f 00 00 00    	je     1cb4 <main+0x1cb4>
                for newMax..len {
    1c25:	8b 4d 18             	mov    0x18(%rbp),%ecx
    1c28:	48 63 c9             	movslq %ecx,%rcx
    1c2b:	ff f1                	push   %rcx
    1c2d:	8f c1                	pop    %rcx
    1c2f:	48 81 e9 01 00 00 00 	sub    $0x1,%rcx
    1c36:	89 4d f0             	mov    %ecx,-0x10(%rbp)
    1c39:	48 8b 4d 10          	mov    0x10(%rbp),%rcx
    1c3d:	48 8b c9             	mov    %rcx,%rcx
    1c40:	8b 51 0c             	mov    0xc(%rcx),%edx
    1c43:	ff f2                	push   %rdx
    1c45:	8f c1                	pop    %rcx
    1c47:	8b 55 f0             	mov    -0x10(%rbp),%edx
    1c4a:	48 81 c2 01 00 00 00 	add    $0x1,%rdx
    1c51:	89 55 f0             	mov    %edx,-0x10(%rbp)
    1c54:	3b d1                	cmp    %ecx,%edx
    1c56:	40 0f 9c c2          	rex setl %dl
    1c5a:	48 0f b6 d2          	movzbq %dl,%rdx
    1c5e:	48 83 fa 00          	cmp    $0x0,%rdx
    1c62:	0f 84 4c 00 00 00    	je     1cb4 <main+0x1cb4>
                    destruct(&ptr[nr])
    1c68:	48 8b 4d 10          	mov    0x10(%rbp),%rcx
    1c6c:	48 8b c9             	mov    %rcx,%rcx
    1c6f:	ba 00 00 00 00       	mov    $0x0,%edx
    1c74:	48 03 ca             	add    %rdx,%rcx
    1c77:	ff f1                	push   %rcx
    1c79:	8b 4d f0             	mov    -0x10(%rbp),%ecx
    1c7c:	8f c2                	pop    %rdx
    1c7e:	48 8b 1a             	mov    (%rdx),%rbx
    1c81:	ba 40 00 00 00       	mov    $0x40,%edx
    1c86:	48 8b fa             	mov    %rdx,%rdi
    1c89:	48 8b c1             	mov    %rcx,%rax
    1c8c:	48 f7 e7             	mul    %rdi
    1c8f:	48 8b c8             	mov    %rax,%rcx
    1c92:	48 8b d7             	mov    %rdi,%rdx
    1c95:	48 03 d9             	add    %rcx,%rbx
    1c98:	48 81 ec 08 00 00 00 	sub    $0x8,%rsp
    1c9f:	48 89 1c 24          	mov    %rbx,(%rsp)
    1ca3:	e8 bd 09 00 00       	call   2665 <main+0x2665>
    1ca8:	48 81 c4 08 00 00 00 	add    $0x8,%rsp
    1caf:	e9 85 ff ff ff       	jmp    1c39 <main+0x1c39>
            new_size := newMax * sizeof T;
    1cb4:	8b 4d 18             	mov    0x18(%rbp),%ecx
    1cb7:	48 63 c9             	movslq %ecx,%rcx
    1cba:	ff f1                	push   %rcx
    1cbc:	b9 40 00 00 00       	mov    $0x40,%ecx
    1cc1:	8f c2                	pop    %rdx
    1cc3:	0f af d1             	imul   %ecx,%edx
    1cc6:	89 55 f0             	mov    %edx,-0x10(%rbp)
            old_size := max * sizeof T;
    1cc9:	48 8b 4d 10          	mov    0x10(%rbp),%rcx
    1ccd:	48 8b c9             	mov    %rcx,%rcx
    1cd0:	8b 51 08             	mov    0x8(%rcx),%edx
    1cd3:	ff f2                	push   %rdx
    1cd5:	b9 40 00 00 00       	mov    $0x40,%ecx
    1cda:	8f c2                	pop    %rdx
    1cdc:	0f af d1             	imul   %ecx,%edx
    1cdf:	89 55 e8             	mov    %edx,-0x18(%rbp)
            newPtr: T* = cast_unsafe<T*>Reallocate(new_size, cast_unsafe<void*>ptr, old_size);
    1ce2:	48 81 ec 18 00 00 00 	sub    $0x18,%rsp
    1ce9:	8b 4d f0             	mov    -0x10(%rbp),%ecx
    1cec:	48 63 d1             	movslq %ecx,%rdx
    1cef:	ff f2                	push   %rdx
    1cf1:	48 8b 4d 10          	mov    0x10(%rbp),%rcx
    1cf5:	48 8b c9             	mov    %rcx,%rcx
    1cf8:	48 8b 11             	mov    (%rcx),%rdx
    1cfb:	ff f2                	push   %rdx
    1cfd:	8b 4d e8             	mov    -0x18(%rbp),%ecx
    1d00:	48 63 d1             	movslq %ecx,%rdx
    1d03:	48 89 54 24 20       	mov    %rdx,0x20(%rsp)
    1d08:	8f c1                	pop    %rcx
    1d0a:	48 89 4c 24 10       	mov    %rcx,0x10(%rsp)
    1d0f:	8f c1                	pop    %rcx
    1d11:	48 89 0c 24          	mov    %rcx,(%rsp)
    1d15:	e8 dd 5c 00 00       	call   79f7 <main+0x79f7>
    1d1a:	48 81 c4 18 00 00 00 	add    $0x18,%rsp
    1d21:	48 8b 4c 24 d0       	mov    -0x30(%rsp),%rcx
    1d26:	48 89 4d e0          	mov    %rcx,-0x20(%rbp)
            if !newPtr
    1d2a:	48 8b 4d e0          	mov    -0x20(%rbp),%rcx
    1d2e:	48 85 c9             	test   %rcx,%rcx
    1d31:	40 0f 94 c1          	rex sete %cl
    1d35:	48 0f b6 c9          	movzbq %cl,%rcx
    1d39:	48 83 f9 00          	cmp    $0x0,%rcx
    1d3d:	0f 84 12 00 00 00    	je     1d55 <main+0x1d55>
                return false;
    1d43:	b9 00 00 00 00       	mov    $0x0,%ecx
    1d48:	88 4d f8             	mov    %cl,-0x8(%rbp)
    1d4b:	48 81 c4 28 00 00 00 	add    $0x28,%rsp
    1d52:	8f c5                	pop    %rbp
    1d54:	c3                   	ret
            if newMax > max
    1d55:	8b 4d 18             	mov    0x18(%rbp),%ecx
    1d58:	48 63 c9             	movslq %ecx,%rcx
    1d5b:	ff f1                	push   %rcx
    1d5d:	48 8b 4d 10          	mov    0x10(%rbp),%rcx
    1d61:	48 8b c9             	mov    %rcx,%rcx
    1d64:	8b 51 08             	mov    0x8(%rcx),%edx
    1d67:	8f c1                	pop    %rcx
    1d69:	3b ca                	cmp    %edx,%ecx
    1d6b:	40 0f 9f c1          	rex setg %cl
    1d6f:	48 0f b6 c9          	movzbq %cl,%rcx
    1d73:	48 83 f9 00          	cmp    $0x0,%rcx
    1d77:	0f 84 63 00 00 00    	je     1de0 <main+0x1de0>
                memzero(cast_unsafe<void*>newPtr + len * sizeof T, (newMax - max) * sizeof T);
    1d7d:	48 8b 4d e0          	mov    -0x20(%rbp),%rcx
    1d81:	ff f1                	push   %rcx
    1d83:	48 8b 4d 10          	mov    0x10(%rbp),%rcx
    1d87:	48 8b c9             	mov    %rcx,%rcx
    1d8a:	8b 51 0c             	mov    0xc(%rcx),%edx
    1d8d:	ff f2                	push   %rdx
    1d8f:	b9 40 00 00 00       	mov    $0x40,%ecx
    1d94:	8f c2                	pop    %rdx
    1d96:	0f af d1             	imul   %ecx,%edx
    1d99:	8f c1                	pop    %rcx
    1d9b:	48 03 ca             	add    %rdx,%rcx
    1d9e:	ff f1                	push   %rcx
    1da0:	8b 4d 18             	mov    0x18(%rbp),%ecx
    1da3:	48 63 c9             	movslq %ecx,%rcx
    1da6:	ff f1                	push   %rcx
    1da8:	48 8b 4d 10          	mov    0x10(%rbp),%rcx
    1dac:	48 8b c9             	mov    %rcx,%rcx
    1daf:	8b 51 08             	mov    0x8(%rcx),%edx
    1db2:	8f c1                	pop    %rcx
    1db4:	2b ca                	sub    %edx,%ecx
    1db6:	ff f1                	push   %rcx
    1db8:	b9 40 00 00 00       	mov    $0x40,%ecx
    1dbd:	8f c2                	pop    %rdx
    1dbf:	0f af d1             	imul   %ecx,%edx
    1dc2:	48 63 ca             	movslq %edx,%rcx
    1dc5:	8f c2                	pop    %rdx
    1dc7:	ff f2                	push   %rdx
    1dc9:	ff f1                	push   %rcx
    1dcb:	48 01 d1             	add    %rdx,%rcx
    1dce:	48 3b ca             	cmp    %rdx,%rcx
    1dd1:	74 09                	je     1ddc <main+0x1ddc>
    1dd3:	c6 02 00             	movb   $0x0,(%rdx)
    1dd6:	48 83 c2 01          	add    $0x1,%rdx
    1dda:	eb f2                	jmp    1dce <main+0x1dce>
    1ddc:	8f c1                	pop    %rcx
    1dde:	8f c2                	pop    %rdx
            ptr = newPtr;
    1de0:	48 8b 4d e0          	mov    -0x20(%rbp),%rcx
    1de4:	ff f1                	push   %rcx
    1de6:	48 8b 4d 10          	mov    0x10(%rbp),%rcx
    1dea:	48 8b c9             	mov    %rcx,%rcx
    1ded:	ba 00 00 00 00       	mov    $0x0,%edx
    1df2:	48 03 ca             	add    %rdx,%rcx
    1df5:	8f c2                	pop    %rdx
    1df7:	48 89 11             	mov    %rdx,(%rcx)
            max = newMax;
    1dfa:	8b 4d 18             	mov    0x18(%rbp),%ecx
    1dfd:	48 63 c9             	movslq %ecx,%rcx
    1e00:	ff f1                	push   %rcx
    1e02:	48 8b 4d 10          	mov    0x10(%rbp),%rcx
    1e06:	48 8b c9             	mov    %rcx,%rcx
    1e09:	ba 08 00 00 00       	mov    $0x8,%edx
    1e0e:	48 03 ca             	add    %rdx,%rcx
    1e11:	8f c2                	pop    %rdx
    1e13:	89 11                	mov    %edx,(%rcx)
            if len > newMax {
    1e15:	48 8b 4d 10          	mov    0x10(%rbp),%rcx
    1e19:	48 8b c9             	mov    %rcx,%rcx
    1e1c:	8b 51 0c             	mov    0xc(%rcx),%edx
    1e1f:	ff f2                	push   %rdx
    1e21:	8b 4d 18             	mov    0x18(%rbp),%ecx
    1e24:	48 63 c9             	movslq %ecx,%rcx
    1e27:	8f c2                	pop    %rdx
    1e29:	3b d1                	cmp    %ecx,%edx
    1e2b:	40 0f 9f c2          	rex setg %dl
    1e2f:	48 0f b6 d2          	movzbq %dl,%rdx
    1e33:	48 83 fa 00          	cmp    $0x0,%rdx
    1e37:	0f 84 1b 00 00 00    	je     1e58 <main+0x1e58>
                len = newMax;
    1e3d:	8b 4d 18             	mov    0x18(%rbp),%ecx
    1e40:	48 63 c9             	movslq %ecx,%rcx
    1e43:	ff f1                	push   %rcx
    1e45:	48 8b 4d 10          	mov    0x10(%rbp),%rcx
    1e49:	48 8b c9             	mov    %rcx,%rcx
    1e4c:	ba 0c 00 00 00       	mov    $0xc,%edx
    1e51:	48 03 ca             	add    %rdx,%rcx
    1e54:	8f c2                	pop    %rdx
    1e56:	89 11                	mov    %edx,(%rcx)
            return true;
    1e58:	b9 01 00 00 00       	mov    $0x1,%ecx
    1e5d:	88 4d f8             	mov    %cl,-0x8(%rbp)
    1e60:	48 81 c4 28 00 00 00 	add    $0x28,%rsp
    1e67:	8f c5                	pop    %rbp
    1e69:	c3                   	ret
        return false;
    1e6a:	b9 00 00 00 00       	mov    $0x0,%ecx
    1e6f:	88 4d f8             	mov    %cl,-0x8(%rbp)
    1e72:	48 81 c4 28 00 00 00 	add    $0x28,%rsp
    1e79:	8f c5                	pop    %rbp
    1e7b:	c3                   	ret
    fn reserve(newMax: i32) -> bool {
    1e7c:	ff f5                	push   %rbp
    1e7e:	48 8b ec             	mov    %rsp,%rbp
    1e81:	48 81 ec 28 00 00 00 	sub    $0x28,%rsp
        Assert(!is_frozen())
    1e88:	48 81 ec 28 00 00 00 	sub    $0x28,%rsp
    1e8f:	48 81 ec 10 00 00 00 	sub    $0x10,%rsp
    1e96:	48 8b 4d 10          	mov    0x10(%rbp),%rcx
    1e9a:	48 8b c9             	mov    %rcx,%rcx
    1e9d:	48 89 0c 24          	mov    %rcx,(%rsp)
    1ea1:	e8 65 07 00 00       	call   260b <main+0x260b>
    1ea6:	48 81 c4 10 00 00 00 	add    $0x10,%rsp
    1ead:	48 8a 4c 24 d8       	rex.W mov -0x28(%rsp),%cl
    1eb2:	48 0f b6 c9          	movzbq %cl,%rcx
    1eb6:	48 85 c9             	test   %rcx,%rcx
    1eb9:	40 0f 94 c1          	rex sete %cl
    1ebd:	48 0f b6 c9          	movzbq %cl,%rcx
    1ec1:	ff f1                	push   %rcx
    1ec3:	b9 8d 00 00 00       	mov    $0x8d,%ecx
    1ec8:	ff f1                	push   %rcx
    1eca:	b9 15 00 00 00       	mov    $0x15,%ecx
    1ecf:	ff f1                	push   %rcx
    1ed1:	48 8d 0d 00 00 00 00 	lea    0x0(%rip),%rcx        # 1ed8 <main+0x1ed8>
    1ed8:	ff f1                	push   %rcx
    1eda:	b9 0c 00 00 00       	mov    $0xc,%ecx
    1edf:	ff f1                	push   %rcx
    1ee1:	48 8d 0d 00 00 00 00 	lea    0x0(%rip),%rcx        # 1ee8 <main+0x1ee8>
    1ee8:	48 89 4c 24 40       	mov    %rcx,0x40(%rsp)
    1eed:	8f c1                	pop    %rcx
    1eef:	48 89 4c 24 40       	mov    %rcx,0x40(%rsp)
    1ef4:	8f c1                	pop    %rcx
    1ef6:	48 89 4c 24 20       	mov    %rcx,0x20(%rsp)
    1efb:	8f c1                	pop    %rcx
    1efd:	48 89 4c 24 20       	mov    %rcx,0x20(%rsp)
    1f02:	8f c1                	pop    %rcx
    1f04:	89 4c 24 0c          	mov    %ecx,0xc(%rsp)
    1f08:	8f c1                	pop    %rcx
    1f0a:	88 0c 24             	mov    %cl,(%rsp)
    1f0d:	e8 40 e1 ff ff       	call   52 <main+0x52>
    1f12:	48 81 c4 28 00 00 00 	add    $0x28,%rsp
        if is_frozen()
    1f19:	48 81 ec 08 00 00 00 	sub    $0x8,%rsp
    1f20:	48 8b 4d 10          	mov    0x10(%rbp),%rcx
    1f24:	48 8b c9             	mov    %rcx,%rcx
    1f27:	48 89 0c 24          	mov    %rcx,(%rsp)
    1f2b:	e8 db 06 00 00       	call   260b <main+0x260b>
    1f30:	48 81 c4 08 00 00 00 	add    $0x8,%rsp
    1f37:	48 8a 4c 24 e0       	rex.W mov -0x20(%rsp),%cl
    1f3c:	48 0f b6 c9          	movzbq %cl,%rcx
    1f40:	48 83 f9 00          	cmp    $0x0,%rcx
    1f44:	0f 84 12 00 00 00    	je     1f5c <main+0x1f5c>
            return false
    1f4a:	b9 00 00 00 00       	mov    $0x0,%ecx
    1f4f:	88 4d f8             	mov    %cl,-0x8(%rbp)
    1f52:	48 81 c4 28 00 00 00 	add    $0x28,%rsp
    1f59:	8f c5                	pop    %rbp
    1f5b:	c3                   	ret
        if newMax==0 {
    1f5c:	8b 4d 18             	mov    0x18(%rbp),%ecx
    1f5f:	48 63 c9             	movslq %ecx,%rcx
    1f62:	ff f1                	push   %rcx
    1f64:	b9 00 00 00 00       	mov    $0x0,%ecx
    1f69:	8f c2                	pop    %rdx
    1f6b:	3b d1                	cmp    %ecx,%edx
    1f6d:	40 0f 94 c2          	rex sete %dl
    1f71:	48 0f b6 d2          	movzbq %dl,%rdx
    1f75:	48 83 fa 00          	cmp    $0x0,%rdx
    1f79:	0f 84 a4 01 00 00    	je     2123 <main+0x2123>
            if max!=0 {
    1f7f:	48 8b 4d 10          	mov    0x10(%rbp),%rcx
    1f83:	48 8b c9             	mov    %rcx,%rcx
    1f86:	8b 51 08             	mov    0x8(%rcx),%edx
    1f89:	ff f2                	push   %rdx
    1f8b:	b9 00 00 00 00       	mov    $0x0,%ecx
    1f90:	8f c2                	pop    %rdx
    1f92:	3b d1                	cmp    %ecx,%edx
    1f94:	40 0f 95 c2          	rex setne %dl
    1f98:	48 0f b6 d2          	movzbq %dl,%rdx
    1f9c:	48 83 fa 00          	cmp    $0x0,%rdx
    1fa0:	0f 84 1c 01 00 00    	je     20c2 <main+0x20c2>
                for 0..len {
    1fa6:	b9 00 00 00 00       	mov    $0x0,%ecx
    1fab:	ff f1                	push   %rcx
    1fad:	8f c1                	pop    %rcx
    1faf:	48 81 e9 01 00 00 00 	sub    $0x1,%rcx
    1fb6:	89 4d f0             	mov    %ecx,-0x10(%rbp)
    1fb9:	48 8b 4d 10          	mov    0x10(%rbp),%rcx
    1fbd:	48 8b c9             	mov    %rcx,%rcx
    1fc0:	8b 51 0c             	mov    0xc(%rcx),%edx
    1fc3:	ff f2                	push   %rdx
    1fc5:	8f c1                	pop    %rcx
    1fc7:	8b 55 f0             	mov    -0x10(%rbp),%edx
    1fca:	48 81 c2 01 00 00 00 	add    $0x1,%rdx
    1fd1:	89 55 f0             	mov    %edx,-0x10(%rbp)
    1fd4:	3b d1                	cmp    %ecx,%edx
    1fd6:	40 0f 9c c2          	rex setl %dl
    1fda:	48 0f b6 d2          	movzbq %dl,%rdx
    1fde:	48 83 fa 00          	cmp    $0x0,%rdx
    1fe2:	0f 84 91 00 00 00    	je     2079 <main+0x2079>
                    destruct(&ptr[nr])
    1fe8:	48 8b 4d 10          	mov    0x10(%rbp),%rcx
    1fec:	48 8b c9             	mov    %rcx,%rcx
    1fef:	ba 00 00 00 00       	mov    $0x0,%edx
    1ff4:	48 03 ca             	add    %rdx,%rcx
    1ff7:	ff f1                	push   %rcx
    1ff9:	8b 4d f0             	mov    -0x10(%rbp),%ecx
    1ffc:	8f c2                	pop    %rdx
    1ffe:	48 8b 1a             	mov    (%rdx),%rbx
    2001:	ba 0c 00 00 00       	mov    $0xc,%edx
    2006:	48 8b fa             	mov    %rdx,%rdi
    2009:	48 8b c1             	mov    %rcx,%rax
    200c:	48 f7 e7             	mul    %rdi
    200f:	48 8b c8             	mov    %rax,%rcx
    2012:	48 8b d7             	mov    %rdi,%rdx
    2015:	48 03 d9             	add    %rcx,%rbx
    2018:	b9 0c 00 00 00       	mov    $0xc,%ecx
    201d:	ff f3                	push   %rbx
    201f:	ff f1                	push   %rcx
    2021:	48 01 d9             	add    %rbx,%rcx
    2024:	48 3b cb             	cmp    %rbx,%rcx
    2027:	74 0c                	je     2035 <main+0x2035>
    2029:	c7 03 00 00 00 00    	movl   $0x0,(%rbx)
    202f:	48 83 c3 04          	add    $0x4,%rbx
    2033:	eb ef                	jmp    2024 <main+0x2024>
    2035:	8f c1                	pop    %rcx
    2037:	8f c3                	pop    %rbx
    2039:	b9 00 00 00 00       	mov    $0x0,%ecx
    203e:	48 63 d1             	movslq %ecx,%rdx
    2041:	88 53 08             	mov    %dl,0x8(%rbx)
    2044:	b9 00 00 00 00       	mov    $0x0,%ecx
    2049:	48 63 d1             	movslq %ecx,%rdx
    204c:	88 53 07             	mov    %dl,0x7(%rbx)
    204f:	b9 00 00 00 00       	mov    $0x0,%ecx
    2054:	48 63 d1             	movslq %ecx,%rdx
    2057:	88 53 06             	mov    %dl,0x6(%rbx)
    205a:	b9 00 00 00 00       	mov    $0x0,%ecx
    205f:	48 63 d1             	movslq %ecx,%rdx
    2062:	88 53 05             	mov    %dl,0x5(%rbx)
    2065:	b9 00 00 00 00       	mov    $0x0,%ecx
    206a:	88 4b 04             	mov    %cl,0x4(%rbx)
    206d:	b9 00 00 00 00       	mov    $0x0,%ecx
    2072:	89 0b                	mov    %ecx,(%rbx)
    2074:	e9 40 ff ff ff       	jmp    1fb9 <main+0x1fb9>
                bytes := max * sizeof T
    2079:	48 8b 4d 10          	mov    0x10(%rbp),%rcx
    207d:	48 8b c9             	mov    %rcx,%rcx
    2080:	8b 51 08             	mov    0x8(%rcx),%edx
    2083:	ff f2                	push   %rdx
    2085:	b9 0c 00 00 00       	mov    $0xc,%ecx
    208a:	8f c2                	pop    %rdx
    208c:	0f af d1             	imul   %ecx,%edx
    208f:	89 55 f0             	mov    %edx,-0x10(%rbp)
                Free(cast_unsafe<void*>ptr, bytes);
    2092:	48 81 ec 18 00 00 00 	sub    $0x18,%rsp
    2099:	48 8b 4d 10          	mov    0x10(%rbp),%rcx
    209d:	48 8b c9             	mov    %rcx,%rcx
    20a0:	48 8b 11             	mov    (%rcx),%rdx
    20a3:	ff f2                	push   %rdx
    20a5:	8b 4d f0             	mov    -0x10(%rbp),%ecx
    20a8:	48 63 d1             	movslq %ecx,%rdx
    20ab:	48 89 54 24 10       	mov    %rdx,0x10(%rsp)
    20b0:	8f c1                	pop    %rcx
    20b2:	48 89 0c 24          	mov    %rcx,(%rsp)
    20b6:	e8 96 59 00 00       	call   7a51 <main+0x7a51>
    20bb:	48 81 c4 18 00 00 00 	add    $0x18,%rsp
            ptr = null;
    20c2:	b9 00 00 00 00       	mov    $0x0,%ecx
    20c7:	ff f1                	push   %rcx
    20c9:	48 8b 4d 10          	mov    0x10(%rbp),%rcx
    20cd:	48 8b c9             	mov    %rcx,%rcx
    20d0:	ba 00 00 00 00       	mov    $0x0,%edx
    20d5:	48 03 ca             	add    %rdx,%rcx
    20d8:	8f c2                	pop    %rdx
    20da:	48 89 11             	mov    %rdx,(%rcx)
            max = 0;
    20dd:	b9 00 00 00 00       	mov    $0x0,%ecx
    20e2:	ff f1                	push   %rcx
    20e4:	48 8b 4d 10          	mov    0x10(%rbp),%rcx
    20e8:	48 8b c9             	mov    %rcx,%rcx
    20eb:	ba 08 00 00 00       	mov    $0x8,%edx
    20f0:	48 03 ca             	add    %rdx,%rcx
    20f3:	8f c2                	pop    %rdx
    20f5:	89 11                	mov    %edx,(%rcx)
            len = 0;
    20f7:	b9 00 00 00 00       	mov    $0x0,%ecx
    20fc:	ff f1                	push   %rcx
    20fe:	48 8b 4d 10          	mov    0x10(%rbp),%rcx
    2102:	48 8b c9             	mov    %rcx,%rcx
    2105:	ba 0c 00 00 00       	mov    $0xc,%edx
    210a:	48 03 ca             	add    %rdx,%rcx
    210d:	8f c2                	pop    %rdx
    210f:	89 11                	mov    %edx,(%rcx)
            return true;
    2111:	b9 01 00 00 00       	mov    $0x1,%ecx
    2116:	88 4d f8             	mov    %cl,-0x8(%rbp)
    2119:	48 81 c4 28 00 00 00 	add    $0x28,%rsp
    2120:	8f c5                	pop    %rbp
    2122:	c3                   	ret
        if !ptr {
    2123:	48 8b 4d 10          	mov    0x10(%rbp),%rcx
    2127:	48 8b c9             	mov    %rcx,%rcx
    212a:	48 8b 11             	mov    (%rcx),%rdx
    212d:	48 85 d2             	test   %rdx,%rdx
    2130:	40 0f 94 c2          	rex sete %dl
    2134:	48 0f b6 d2          	movzbq %dl,%rdx
    2138:	48 83 fa 00          	cmp    $0x0,%rdx
    213c:	0f 84 f7 00 00 00    	je     2239 <main+0x2239>
            bytes := newMax * sizeof T
    2142:	8b 4d 18             	mov    0x18(%rbp),%ecx
    2145:	48 63 c9             	movslq %ecx,%rcx
    2148:	ff f1                	push   %rcx
    214a:	b9 0c 00 00 00       	mov    $0xc,%ecx
    214f:	8f c2                	pop    %rdx
    2151:	0f af d1             	imul   %ecx,%edx
    2154:	89 55 f0             	mov    %edx,-0x10(%rbp)
            ptr = cast_unsafe<T*>Allocate(bytes);
    2157:	48 81 ec 08 00 00 00 	sub    $0x8,%rsp
    215e:	8b 4d f0             	mov    -0x10(%rbp),%ecx
    2161:	48 63 d1             	movslq %ecx,%rdx
    2164:	48 89 14 24          	mov    %rdx,(%rsp)
    2168:	e8 2e 58 00 00       	call   799b <main+0x799b>
    216d:	48 81 c4 08 00 00 00 	add    $0x8,%rsp
    2174:	48 8b 4c 24 e0       	mov    -0x20(%rsp),%rcx
    2179:	ff f1                	push   %rcx
    217b:	48 8b 4d 10          	mov    0x10(%rbp),%rcx
    217f:	48 8b c9             	mov    %rcx,%rcx
    2182:	ba 00 00 00 00       	mov    $0x0,%edx
    2187:	48 03 ca             	add    %rdx,%rcx
    218a:	8f c2                	pop    %rdx
    218c:	48 89 11             	mov    %rdx,(%rcx)
            memzero(cast_unsafe<void*>ptr, bytes)
    218f:	48 8b 4d 10          	mov    0x10(%rbp),%rcx
    2193:	48 8b c9             	mov    %rcx,%rcx
    2196:	48 8b 11             	mov    (%rcx),%rdx
    2199:	ff f2                	push   %rdx
    219b:	8b 4d f0             	mov    -0x10(%rbp),%ecx
    219e:	48 63 d1             	movslq %ecx,%rdx
    21a1:	8f c1                	pop    %rcx
    21a3:	ff f1                	push   %rcx
    21a5:	ff f2                	push   %rdx
    21a7:	48 01 ca             	add    %rcx,%rdx
    21aa:	48 3b d1             	cmp    %rcx,%rdx
    21ad:	74 09                	je     21b8 <main+0x21b8>
    21af:	c6 01 00             	movb   $0x0,(%rcx)
    21b2:	48 83 c1 01          	add    $0x1,%rcx
    21b6:	eb f2                	jmp    21aa <main+0x21aa>
    21b8:	8f c2                	pop    %rdx
    21ba:	8f c1                	pop    %rcx
            if !ptr
    21bc:	48 8b 4d 10          	mov    0x10(%rbp),%rcx
    21c0:	48 8b c9             	mov    %rcx,%rcx
    21c3:	48 8b 11             	mov    (%rcx),%rdx
    21c6:	48 85 d2             	test   %rdx,%rdx
    21c9:	40 0f 94 c2          	rex sete %dl
    21cd:	48 0f b6 d2          	movzbq %dl,%rdx
    21d1:	48 83 fa 00          	cmp    $0x0,%rdx
    21d5:	0f 84 12 00 00 00    	je     21ed <main+0x21ed>
                return false;
    21db:	b9 00 00 00 00       	mov    $0x0,%ecx
    21e0:	88 4d f8             	mov    %cl,-0x8(%rbp)
    21e3:	48 81 c4 28 00 00 00 	add    $0x28,%rsp
    21ea:	8f c5                	pop    %rbp
    21ec:	c3                   	ret
            len = 0;
    21ed:	b9 00 00 00 00       	mov    $0x0,%ecx
    21f2:	ff f1                	push   %rcx
    21f4:	48 8b 4d 10          	mov    0x10(%rbp),%rcx
    21f8:	48 8b c9             	mov    %rcx,%rcx
    21fb:	ba 0c 00 00 00       	mov    $0xc,%edx
    2200:	48 03 ca             	add    %rdx,%rcx
    2203:	8f c2                	pop    %rdx
    2205:	89 11                	mov    %edx,(%rcx)
            max = newMax;
    2207:	8b 4d 18             	mov    0x18(%rbp),%ecx
    220a:	48 63 c9             	movslq %ecx,%rcx
    220d:	ff f1                	push   %rcx
    220f:	48 8b 4d 10          	mov    0x10(%rbp),%rcx
    2213:	48 8b c9             	mov    %rcx,%rcx
    2216:	ba 08 00 00 00       	mov    $0x8,%edx
    221b:	48 03 ca             	add    %rdx,%rcx
    221e:	8f c2                	pop    %rdx
    2220:	89 11                	mov    %edx,(%rcx)
            return true;
    2222:	b9 01 00 00 00       	mov    $0x1,%ecx
    2227:	88 4d f8             	mov    %cl,-0x8(%rbp)
    222a:	48 81 c4 28 00 00 00 	add    $0x28,%rsp
    2231:	8f c5                	pop    %rbp
    2233:	c3                   	ret
    2234:	e9 b2 02 00 00       	jmp    24eb <main+0x24eb>
            if newMax < len {
    2239:	8b 4d 18             	mov    0x18(%rbp),%ecx
    223c:	48 63 c9             	movslq %ecx,%rcx
    223f:	ff f1                	push   %rcx
    2241:	48 8b 4d 10          	mov    0x10(%rbp),%rcx
    2245:	48 8b c9             	mov    %rcx,%rcx
    2248:	8b 51 0c             	mov    0xc(%rcx),%edx
    224b:	8f c1                	pop    %rcx
    224d:	3b ca                	cmp    %edx,%ecx
    224f:	40 0f 9c c1          	rex setl %cl
    2253:	48 0f b6 c9          	movzbq %cl,%rcx
    2257:	48 83 f9 00          	cmp    $0x0,%rcx
    225b:	0f 84 d4 00 00 00    	je     2335 <main+0x2335>
                for newMax..len {
    2261:	8b 4d 18             	mov    0x18(%rbp),%ecx
    2264:	48 63 c9             	movslq %ecx,%rcx
    2267:	ff f1                	push   %rcx
    2269:	8f c1                	pop    %rcx
    226b:	48 81 e9 01 00 00 00 	sub    $0x1,%rcx
    2272:	89 4d f0             	mov    %ecx,-0x10(%rbp)
    2275:	48 8b 4d 10          	mov    0x10(%rbp),%rcx
    2279:	48 8b c9             	mov    %rcx,%rcx
    227c:	8b 51 0c             	mov    0xc(%rcx),%edx
    227f:	ff f2                	push   %rdx
    2281:	8f c1                	pop    %rcx
    2283:	8b 55 f0             	mov    -0x10(%rbp),%edx
    2286:	48 81 c2 01 00 00 00 	add    $0x1,%rdx
    228d:	89 55 f0             	mov    %edx,-0x10(%rbp)
    2290:	3b d1                	cmp    %ecx,%edx
    2292:	40 0f 9c c2          	rex setl %dl
    2296:	48 0f b6 d2          	movzbq %dl,%rdx
    229a:	48 83 fa 00          	cmp    $0x0,%rdx
    229e:	0f 84 91 00 00 00    	je     2335 <main+0x2335>
                    destruct(&ptr[nr])
    22a4:	48 8b 4d 10          	mov    0x10(%rbp),%rcx
    22a8:	48 8b c9             	mov    %rcx,%rcx
    22ab:	ba 00 00 00 00       	mov    $0x0,%edx
    22b0:	48 03 ca             	add    %rdx,%rcx
    22b3:	ff f1                	push   %rcx
    22b5:	8b 4d f0             	mov    -0x10(%rbp),%ecx
    22b8:	8f c2                	pop    %rdx
    22ba:	48 8b 1a             	mov    (%rdx),%rbx
    22bd:	ba 0c 00 00 00       	mov    $0xc,%edx
    22c2:	48 8b fa             	mov    %rdx,%rdi
    22c5:	48 8b c1             	mov    %rcx,%rax
    22c8:	48 f7 e7             	mul    %rdi
    22cb:	48 8b c8             	mov    %rax,%rcx
    22ce:	48 8b d7             	mov    %rdi,%rdx
    22d1:	48 03 d9             	add    %rcx,%rbx
    22d4:	b9 0c 00 00 00       	mov    $0xc,%ecx
    22d9:	ff f3                	push   %rbx
    22db:	ff f1                	push   %rcx
    22dd:	48 01 d9             	add    %rbx,%rcx
    22e0:	48 3b cb             	cmp    %rbx,%rcx
    22e3:	74 0c                	je     22f1 <main+0x22f1>
    22e5:	c7 03 00 00 00 00    	movl   $0x0,(%rbx)
    22eb:	48 83 c3 04          	add    $0x4,%rbx
    22ef:	eb ef                	jmp    22e0 <main+0x22e0>
    22f1:	8f c1                	pop    %rcx
    22f3:	8f c3                	pop    %rbx
    22f5:	b9 00 00 00 00       	mov    $0x0,%ecx
    22fa:	48 63 d1             	movslq %ecx,%rdx
    22fd:	88 53 08             	mov    %dl,0x8(%rbx)
    2300:	b9 00 00 00 00       	mov    $0x0,%ecx
    2305:	48 63 d1             	movslq %ecx,%rdx
    2308:	88 53 07             	mov    %dl,0x7(%rbx)
    230b:	b9 00 00 00 00       	mov    $0x0,%ecx
    2310:	48 63 d1             	movslq %ecx,%rdx
    2313:	88 53 06             	mov    %dl,0x6(%rbx)
    2316:	b9 00 00 00 00       	mov    $0x0,%ecx
    231b:	48 63 d1             	movslq %ecx,%rdx
    231e:	88 53 05             	mov    %dl,0x5(%rbx)
    2321:	b9 00 00 00 00       	mov    $0x0,%ecx
    2326:	88 4b 04             	mov    %cl,0x4(%rbx)
    2329:	b9 00 00 00 00       	mov    $0x0,%ecx
    232e:	89 0b                	mov    %ecx,(%rbx)
    2330:	e9 40 ff ff ff       	jmp    2275 <main+0x2275>
            new_size := newMax * sizeof T;
    2335:	8b 4d 18             	mov    0x18(%rbp),%ecx
    2338:	48 63 c9             	movslq %ecx,%rcx
    233b:	ff f1                	push   %rcx
    233d:	b9 0c 00 00 00       	mov    $0xc,%ecx
    2342:	8f c2                	pop    %rdx
    2344:	0f af d1             	imul   %ecx,%edx
    2347:	89 55 f0             	mov    %edx,-0x10(%rbp)
            old_size := max * sizeof T;
    234a:	48 8b 4d 10          	mov    0x10(%rbp),%rcx
    234e:	48 8b c9             	mov    %rcx,%rcx
    2351:	8b 51 08             	mov    0x8(%rcx),%edx
    2354:	ff f2                	push   %rdx
    2356:	b9 0c 00 00 00       	mov    $0xc,%ecx
    235b:	8f c2                	pop    %rdx
    235d:	0f af d1             	imul   %ecx,%edx
    2360:	89 55 e8             	mov    %edx,-0x18(%rbp)
            newPtr: T* = cast_unsafe<T*>Reallocate(new_size, cast_unsafe<void*>ptr, old_size);
    2363:	48 81 ec 18 00 00 00 	sub    $0x18,%rsp
    236a:	8b 4d f0             	mov    -0x10(%rbp),%ecx
    236d:	48 63 d1             	movslq %ecx,%rdx
    2370:	ff f2                	push   %rdx
    2372:	48 8b 4d 10          	mov    0x10(%rbp),%rcx
    2376:	48 8b c9             	mov    %rcx,%rcx
    2379:	48 8b 11             	mov    (%rcx),%rdx
    237c:	ff f2                	push   %rdx
    237e:	8b 4d e8             	mov    -0x18(%rbp),%ecx
    2381:	48 63 d1             	movslq %ecx,%rdx
    2384:	48 89 54 24 20       	mov    %rdx,0x20(%rsp)
    2389:	8f c1                	pop    %rcx
    238b:	48 89 4c 24 10       	mov    %rcx,0x10(%rsp)
    2390:	8f c1                	pop    %rcx
    2392:	48 89 0c 24          	mov    %rcx,(%rsp)
    2396:	e8 5c 56 00 00       	call   79f7 <main+0x79f7>
    239b:	48 81 c4 18 00 00 00 	add    $0x18,%rsp
    23a2:	48 8b 4c 24 d0       	mov    -0x30(%rsp),%rcx
    23a7:	48 89 4d e0          	mov    %rcx,-0x20(%rbp)
            if !newPtr
    23ab:	48 8b 4d e0          	mov    -0x20(%rbp),%rcx
    23af:	48 85 c9             	test   %rcx,%rcx
    23b2:	40 0f 94 c1          	rex sete %cl
    23b6:	48 0f b6 c9          	movzbq %cl,%rcx
    23ba:	48 83 f9 00          	cmp    $0x0,%rcx
    23be:	0f 84 12 00 00 00    	je     23d6 <main+0x23d6>
                return false;
    23c4:	b9 00 00 00 00       	mov    $0x0,%ecx
    23c9:	88 4d f8             	mov    %cl,-0x8(%rbp)
    23cc:	48 81 c4 28 00 00 00 	add    $0x28,%rsp
    23d3:	8f c5                	pop    %rbp
    23d5:	c3                   	ret
            if newMax > max
    23d6:	8b 4d 18             	mov    0x18(%rbp),%ecx
    23d9:	48 63 c9             	movslq %ecx,%rcx
    23dc:	ff f1                	push   %rcx
    23de:	48 8b 4d 10          	mov    0x10(%rbp),%rcx
    23e2:	48 8b c9             	mov    %rcx,%rcx
    23e5:	8b 51 08             	mov    0x8(%rcx),%edx
    23e8:	8f c1                	pop    %rcx
    23ea:	3b ca                	cmp    %edx,%ecx
    23ec:	40 0f 9f c1          	rex setg %cl
    23f0:	48 0f b6 c9          	movzbq %cl,%rcx
    23f4:	48 83 f9 00          	cmp    $0x0,%rcx
    23f8:	0f 84 63 00 00 00    	je     2461 <main+0x2461>
                memzero(cast_unsafe<void*>newPtr + len * sizeof T, (newMax - max) * sizeof T);
    23fe:	48 8b 4d e0          	mov    -0x20(%rbp),%rcx
    2402:	ff f1                	push   %rcx
    2404:	48 8b 4d 10          	mov    0x10(%rbp),%rcx
    2408:	48 8b c9             	mov    %rcx,%rcx
    240b:	8b 51 0c             	mov    0xc(%rcx),%edx
    240e:	ff f2                	push   %rdx
    2410:	b9 0c 00 00 00       	mov    $0xc,%ecx
    2415:	8f c2                	pop    %rdx
    2417:	0f af d1             	imul   %ecx,%edx
    241a:	8f c1                	pop    %rcx
    241c:	48 03 ca             	add    %rdx,%rcx
    241f:	ff f1                	push   %rcx
    2421:	8b 4d 18             	mov    0x18(%rbp),%ecx
    2424:	48 63 c9             	movslq %ecx,%rcx
    2427:	ff f1                	push   %rcx
    2429:	48 8b 4d 10          	mov    0x10(%rbp),%rcx
    242d:	48 8b c9             	mov    %rcx,%rcx
    2430:	8b 51 08             	mov    0x8(%rcx),%edx
    2433:	8f c1                	pop    %rcx
    2435:	2b ca                	sub    %edx,%ecx
    2437:	ff f1                	push   %rcx
    2439:	b9 0c 00 00 00       	mov    $0xc,%ecx
    243e:	8f c2                	pop    %rdx
    2440:	0f af d1             	imul   %ecx,%edx
    2443:	48 63 ca             	movslq %edx,%rcx
    2446:	8f c2                	pop    %rdx
    2448:	ff f2                	push   %rdx
    244a:	ff f1                	push   %rcx
    244c:	48 01 d1             	add    %rdx,%rcx
    244f:	48 3b ca             	cmp    %rdx,%rcx
    2452:	74 09                	je     245d <main+0x245d>
    2454:	c6 02 00             	movb   $0x0,(%rdx)
    2457:	48 83 c2 01          	add    $0x1,%rdx
    245b:	eb f2                	jmp    244f <main+0x244f>
    245d:	8f c1                	pop    %rcx
    245f:	8f c2                	pop    %rdx
            ptr = newPtr;
    2461:	48 8b 4d e0          	mov    -0x20(%rbp),%rcx
    2465:	ff f1                	push   %rcx
    2467:	48 8b 4d 10          	mov    0x10(%rbp),%rcx
    246b:	48 8b c9             	mov    %rcx,%rcx
    246e:	ba 00 00 00 00       	mov    $0x0,%edx
    2473:	48 03 ca             	add    %rdx,%rcx
    2476:	8f c2                	pop    %rdx
    2478:	48 89 11             	mov    %rdx,(%rcx)
            max = newMax;
    247b:	8b 4d 18             	mov    0x18(%rbp),%ecx
    247e:	48 63 c9             	movslq %ecx,%rcx
    2481:	ff f1                	push   %rcx
    2483:	48 8b 4d 10          	mov    0x10(%rbp),%rcx
    2487:	48 8b c9             	mov    %rcx,%rcx
    248a:	ba 08 00 00 00       	mov    $0x8,%edx
    248f:	48 03 ca             	add    %rdx,%rcx
    2492:	8f c2                	pop    %rdx
    2494:	89 11                	mov    %edx,(%rcx)
            if len > newMax {
    2496:	48 8b 4d 10          	mov    0x10(%rbp),%rcx
    249a:	48 8b c9             	mov    %rcx,%rcx
    249d:	8b 51 0c             	mov    0xc(%rcx),%edx
    24a0:	ff f2                	push   %rdx
    24a2:	8b 4d 18             	mov    0x18(%rbp),%ecx
    24a5:	48 63 c9             	movslq %ecx,%rcx
    24a8:	8f c2                	pop    %rdx
    24aa:	3b d1                	cmp    %ecx,%edx
    24ac:	40 0f 9f c2          	rex setg %dl
    24b0:	48 0f b6 d2          	movzbq %dl,%rdx
    24b4:	48 83 fa 00          	cmp    $0x0,%rdx
    24b8:	0f 84 1b 00 00 00    	je     24d9 <main+0x24d9>
                len = newMax;
    24be:	8b 4d 18             	mov    0x18(%rbp),%ecx
    24c1:	48 63 c9             	movslq %ecx,%rcx
    24c4:	ff f1                	push   %rcx
    24c6:	48 8b 4d 10          	mov    0x10(%rbp),%rcx
    24ca:	48 8b c9             	mov    %rcx,%rcx
    24cd:	ba 0c 00 00 00       	mov    $0xc,%edx
    24d2:	48 03 ca             	add    %rdx,%rcx
    24d5:	8f c2                	pop    %rdx
    24d7:	89 11                	mov    %edx,(%rcx)
            return true;
    24d9:	b9 01 00 00 00       	mov    $0x1,%ecx
    24de:	88 4d f8             	mov    %cl,-0x8(%rbp)
    24e1:	48 81 c4 28 00 00 00 	add    $0x28,%rsp
    24e8:	8f c5                	pop    %rbp
    24ea:	c3                   	ret
        return false;
    24eb:	b9 00 00 00 00       	mov    $0x0,%ecx
    24f0:	88 4d f8             	mov    %cl,-0x8(%rbp)
    24f3:	48 81 c4 28 00 00 00 	add    $0x28,%rsp
    24fa:	8f c5                	pop    %rbp
    24fc:	c3                   	ret
        iter.index++
        iter.value = &ptr[iter.index]
        return true
    }
    
    fn is_frozen() -> bool {
    24fd:	ff f5                	push   %rbp
    24ff:	48 8b ec             	mov    %rsp,%rbp
    2502:	48 81 ec 10 00 00 00 	sub    $0x10,%rsp
        return ptr && max == 0
    2509:	48 8b 4d 10          	mov    0x10(%rbp),%rcx
    250d:	48 8b c9             	mov    %rcx,%rcx
    2510:	48 8b 11             	mov    (%rcx),%rdx
    2513:	ff f2                	push   %rdx
    2515:	48 8b 4d 10          	mov    0x10(%rbp),%rcx
    2519:	48 8b c9             	mov    %rcx,%rcx
    251c:	8b 51 08             	mov    0x8(%rcx),%edx
    251f:	ff f2                	push   %rdx
    2521:	b9 00 00 00 00       	mov    $0x0,%ecx
    2526:	8f c2                	pop    %rdx
    2528:	3b d1                	cmp    %ecx,%edx
    252a:	40 0f 94 c2          	rex sete %dl
    252e:	48 0f b6 d2          	movzbq %dl,%rdx
    2532:	8f c1                	pop    %rcx
    2534:	48 85 c9             	test   %rcx,%rcx
    2537:	74 0a                	je     2543 <main+0x2543>
    2539:	48 85 d2             	test   %rdx,%rdx
    253c:	74 05                	je     2543 <main+0x2543>
    253e:	c6 c1 01             	mov    $0x1,%cl
    2541:	eb 03                	jmp    2546 <main+0x2546>
    2543:	c6 c1 00             	mov    $0x0,%cl
    2546:	48 0f b6 c9          	movzbq %cl,%rcx
    254a:	88 4d f8             	mov    %cl,-0x8(%rbp)
    254d:	48 81 c4 10 00 00 00 	add    $0x10,%rsp
    2554:	8f c5                	pop    %rbp
    2556:	c3                   	ret
    fn is_frozen() -> bool {
    2557:	ff f5                	push   %rbp
    2559:	48 8b ec             	mov    %rsp,%rbp
    255c:	48 81 ec 10 00 00 00 	sub    $0x10,%rsp
        return ptr && max == 0
    2563:	48 8b 4d 10          	mov    0x10(%rbp),%rcx
    2567:	48 8b c9             	mov    %rcx,%rcx
    256a:	48 8b 11             	mov    (%rcx),%rdx
    256d:	ff f2                	push   %rdx
    256f:	48 8b 4d 10          	mov    0x10(%rbp),%rcx
    2573:	48 8b c9             	mov    %rcx,%rcx
    2576:	8b 51 08             	mov    0x8(%rcx),%edx
    2579:	ff f2                	push   %rdx
    257b:	b9 00 00 00 00       	mov    $0x0,%ecx
    2580:	8f c2                	pop    %rdx
    2582:	3b d1                	cmp    %ecx,%edx
    2584:	40 0f 94 c2          	rex sete %dl
    2588:	48 0f b6 d2          	movzbq %dl,%rdx
    258c:	8f c1                	pop    %rcx
    258e:	48 85 c9             	test   %rcx,%rcx
    2591:	74 0a                	je     259d <main+0x259d>
    2593:	48 85 d2             	test   %rdx,%rdx
    2596:	74 05                	je     259d <main+0x259d>
    2598:	c6 c1 01             	mov    $0x1,%cl
    259b:	eb 03                	jmp    25a0 <main+0x25a0>
    259d:	c6 c1 00             	mov    $0x0,%cl
    25a0:	48 0f b6 c9          	movzbq %cl,%rcx
    25a4:	88 4d f8             	mov    %cl,-0x8(%rbp)
    25a7:	48 81 c4 10 00 00 00 	add    $0x10,%rsp
    25ae:	8f c5                	pop    %rbp
    25b0:	c3                   	ret
    fn is_frozen() -> bool {
    25b1:	ff f5                	push   %rbp
    25b3:	48 8b ec             	mov    %rsp,%rbp
    25b6:	48 81 ec 10 00 00 00 	sub    $0x10,%rsp
        return ptr && max == 0
    25bd:	48 8b 4d 10          	mov    0x10(%rbp),%rcx
    25c1:	48 8b c9             	mov    %rcx,%rcx
    25c4:	48 8b 11             	mov    (%rcx),%rdx
    25c7:	ff f2                	push   %rdx
    25c9:	48 8b 4d 10          	mov    0x10(%rbp),%rcx
    25cd:	48 8b c9             	mov    %rcx,%rcx
    25d0:	8b 51 08             	mov    0x8(%rcx),%edx
    25d3:	ff f2                	push   %rdx
    25d5:	b9 00 00 00 00       	mov    $0x0,%ecx
    25da:	8f c2                	pop    %rdx
    25dc:	3b d1                	cmp    %ecx,%edx
    25de:	40 0f 94 c2          	rex sete %dl
    25e2:	48 0f b6 d2          	movzbq %dl,%rdx
    25e6:	8f c1                	pop    %rcx
    25e8:	48 85 c9             	test   %rcx,%rcx
    25eb:	74 0a                	je     25f7 <main+0x25f7>
    25ed:	48 85 d2             	test   %rdx,%rdx
    25f0:	74 05                	je     25f7 <main+0x25f7>
    25f2:	c6 c1 01             	mov    $0x1,%cl
    25f5:	eb 03                	jmp    25fa <main+0x25fa>
    25f7:	c6 c1 00             	mov    $0x0,%cl
    25fa:	48 0f b6 c9          	movzbq %cl,%rcx
    25fe:	88 4d f8             	mov    %cl,-0x8(%rbp)
    2601:	48 81 c4 10 00 00 00 	add    $0x10,%rsp
    2608:	8f c5                	pop    %rbp
    260a:	c3                   	ret
    fn is_frozen() -> bool {
    260b:	ff f5                	push   %rbp
    260d:	48 8b ec             	mov    %rsp,%rbp
    2610:	48 81 ec 10 00 00 00 	sub    $0x10,%rsp
        return ptr && max == 0
    2617:	48 8b 4d 10          	mov    0x10(%rbp),%rcx
    261b:	48 8b c9             	mov    %rcx,%rcx
    261e:	48 8b 11             	mov    (%rcx),%rdx
    2621:	ff f2                	push   %rdx
    2623:	48 8b 4d 10          	mov    0x10(%rbp),%rcx
    2627:	48 8b c9             	mov    %rcx,%rcx
    262a:	8b 51 08             	mov    0x8(%rcx),%edx
    262d:	ff f2                	push   %rdx
    262f:	b9 00 00 00 00       	mov    $0x0,%ecx
    2634:	8f c2                	pop    %rdx
    2636:	3b d1                	cmp    %ecx,%edx
    2638:	40 0f 94 c2          	rex sete %dl
    263c:	48 0f b6 d2          	movzbq %dl,%rdx
    2640:	8f c1                	pop    %rcx
    2642:	48 85 c9             	test   %rcx,%rcx
    2645:	74 0a                	je     2651 <main+0x2651>
    2647:	48 85 d2             	test   %rdx,%rdx
    264a:	74 05                	je     2651 <main+0x2651>
    264c:	c6 c1 01             	mov    $0x1,%cl
    264f:	eb 03                	jmp    2654 <main+0x2654>
    2651:	c6 c1 00             	mov    $0x0,%cl
    2654:	48 0f b6 c9          	movzbq %cl,%rcx
    2658:	88 4d f8             	mov    %cl,-0x8(%rbp)
    265b:	48 81 c4 10 00 00 00 	add    $0x10,%rsp
    2662:	8f c5                	pop    %rbp
    2664:	c3                   	ret
    key: Key;
    next: i32; // -1 can't be seen as unused because the chain may link to other chains which we would sever. We need a separate variable for unused while keeping the chain intact.
    unused: bool;
    val: Val;

    fn cleanup() {
    2665:	ff f5                	push   %rbp
    2667:	48 8b ec             	mov    %rsp,%rbp
        destruct(&key) // this might cause problems
    266a:	48 8b 4d 10          	mov    0x10(%rbp),%rcx
    266e:	48 8b c9             	mov    %rcx,%rcx
    2671:	ba 00 00 00 00       	mov    $0x0,%edx
    2676:	48 03 ca             	add    %rdx,%rcx
    2679:	48 33 d2             	xor    %rdx,%rdx
    267c:	48 89 11             	mov    %rdx,(%rcx)
        destruct(&val)
    267f:	48 8b 4d 10          	mov    0x10(%rbp),%rcx
    2683:	48 8b c9             	mov    %rcx,%rcx
    2686:	ba 10 00 00 00       	mov    $0x10,%edx
    268b:	48 03 ca             	add    %rdx,%rcx
    268e:	33 d2                	xor    %edx,%edx
    2690:	89 11                	mov    %edx,(%rcx)
    2692:	8f c5                	pop    %rbp
    2694:	c3                   	ret
    #macro MAP_CHAIN_INDEX_NULL 0
    // #macro MAP_CHAIN_INDEX_BEGIN 1
    
    // Some programmers say that the maximum amount of key/value pairs you will have should
    // be 70% of the max table size.
    fn init(tableSize: i32, reserved_chains: i32 = 0) {
    2695:	ff f5                	push   %rbp
    2697:	48 8b ec             	mov    %rsp,%rbp
        // TODO: Assert(chains.len == 0)
        //   We could call remap but that has overhead and init is supposed to be called
        //   on a fresh map.
        table.resize(tableSize);
    269a:	48 81 ec 10 00 00 00 	sub    $0x10,%rsp
    26a1:	48 8b 4d 10          	mov    0x10(%rbp),%rcx
    26a5:	48 8b c9             	mov    %rcx,%rcx
    26a8:	ba 10 00 00 00       	mov    $0x10,%edx
    26ad:	48 03 ca             	add    %rdx,%rcx
    26b0:	ff f1                	push   %rcx
    26b2:	8b 4d 18             	mov    0x18(%rbp),%ecx
    26b5:	48 63 c9             	movslq %ecx,%rcx
    26b8:	89 4c 24 10          	mov    %ecx,0x10(%rsp)
    26bc:	8f c1                	pop    %rcx
    26be:	48 89 0c 24          	mov    %rcx,(%rsp)
    26c2:	e8 95 e4 ff ff       	call   b5c <main+0xb5c>
    26c7:	48 81 c4 10 00 00 00 	add    $0x10,%rsp
        if reserved_chains > 0
    26ce:	8b 4d 1c             	mov    0x1c(%rbp),%ecx
    26d1:	48 63 c9             	movslq %ecx,%rcx
    26d4:	ff f1                	push   %rcx
    26d6:	b9 00 00 00 00       	mov    $0x0,%ecx
    26db:	8f c2                	pop    %rdx
    26dd:	3b d1                	cmp    %ecx,%edx
    26df:	40 0f 9f c2          	rex setg %dl
    26e3:	48 0f b6 d2          	movzbq %dl,%rdx
    26e7:	48 83 fa 00          	cmp    $0x0,%rdx
    26eb:	0f 84 34 00 00 00    	je     2725 <main+0x2725>
            chains.reserve(reserved_chains);
    26f1:	48 81 ec 10 00 00 00 	sub    $0x10,%rsp
    26f8:	48 8b 4d 10          	mov    0x10(%rbp),%rcx
    26fc:	48 8b c9             	mov    %rcx,%rcx
    26ff:	ba 00 00 00 00       	mov    $0x0,%edx
    2704:	48 03 ca             	add    %rdx,%rcx
    2707:	ff f1                	push   %rcx
    2709:	8b 4d 1c             	mov    0x1c(%rbp),%ecx
    270c:	48 63 c9             	movslq %ecx,%rcx
    270f:	89 4c 24 10          	mov    %ecx,0x10(%rsp)
    2713:	8f c1                	pop    %rcx
    2715:	48 89 0c 24          	mov    %rcx,(%rsp)
    2719:	e8 9f e5 ff ff       	call   cbd <main+0xcbd>
    271e:	48 81 c4 10 00 00 00 	add    $0x10,%rsp
    2725:	8f c5                	pop    %rbp
    2727:	c3                   	ret
            final_hash ^= it;
        }
        return final_hash % table.size();
    }
    // NOTE: Should this be the same or different from i64 hash
    fn hash(num: void*) -> i32 {
    2728:	ff f5                	push   %rbp
    272a:	48 8b ec             	mov    %rsp,%rbp
    272d:	48 81 ec 18 00 00 00 	sub    $0x18,%rsp
        if table.size() == 0
    2734:	48 81 ec 08 00 00 00 	sub    $0x8,%rsp
    273b:	48 8b 4d 10          	mov    0x10(%rbp),%rcx
    273f:	48 8b c9             	mov    %rcx,%rcx
    2742:	ba 10 00 00 00       	mov    $0x10,%edx
    2747:	48 03 ca             	add    %rdx,%rcx
    274a:	48 89 0c 24          	mov    %rcx,(%rsp)
    274e:	e8 1b e1 ff ff       	call   86e <main+0x86e>
    2753:	48 81 c4 08 00 00 00 	add    $0x8,%rsp
    275a:	8b 4c 24 e0          	mov    -0x20(%rsp),%ecx
    275e:	48 63 c9             	movslq %ecx,%rcx
    2761:	ff f1                	push   %rcx
    2763:	b9 00 00 00 00       	mov    $0x0,%ecx
    2768:	8f c2                	pop    %rdx
    276a:	3b d1                	cmp    %ecx,%edx
    276c:	40 0f 94 c2          	rex sete %dl
    2770:	48 0f b6 d2          	movzbq %dl,%rdx
    2774:	48 83 fa 00          	cmp    $0x0,%rdx
    2778:	0f 84 12 00 00 00    	je     2790 <main+0x2790>
            return 0;
    277e:	b9 00 00 00 00       	mov    $0x0,%ecx
    2783:	89 4d f8             	mov    %ecx,-0x8(%rbp)
    2786:	48 81 c4 18 00 00 00 	add    $0x18,%rsp
    278d:	8f c5                	pop    %rbp
    278f:	c3                   	ret
        // https://www.shadertoy.com/view/WttXWX
        x: u32 = cast<u64>num & cast<u64>0xFFFF_FFFF;
    2790:	48 8b 4d 18          	mov    0x18(%rbp),%rcx
    2794:	ff f1                	push   %rcx
    2796:	b9 ff ff ff ff       	mov    $0xffffffff,%ecx
    279b:	8b d1                	mov    %ecx,%edx
    279d:	8f c1                	pop    %rcx
    279f:	48 23 ca             	and    %rdx,%rcx
    27a2:	8b d1                	mov    %ecx,%edx
    27a4:	89 55 f0             	mov    %edx,-0x10(%rbp)
        x ^= x >> 17;
    27a7:	8b 4d f0             	mov    -0x10(%rbp),%ecx
    27aa:	ff f1                	push   %rcx
    27ac:	8b 4d f0             	mov    -0x10(%rbp),%ecx
    27af:	ff f1                	push   %rcx
    27b1:	b9 11 00 00 00       	mov    $0x11,%ecx
    27b6:	8f c2                	pop    %rdx
    27b8:	48 d3 ea             	shr    %cl,%rdx
    27bb:	8f c1                	pop    %rcx
    27bd:	33 ca                	xor    %edx,%ecx
    27bf:	ff f1                	push   %rcx
    27c1:	48 c7 c1 f0 ff ff ff 	mov    $0xfffffffffffffff0,%rcx
    27c8:	48 03 cd             	add    %rbp,%rcx
    27cb:	8f c2                	pop    %rdx
    27cd:	89 11                	mov    %edx,(%rcx)
        x *= 0xed5ad4bbu;
    27cf:	8b 4d f0             	mov    -0x10(%rbp),%ecx
    27d2:	ff f1                	push   %rcx
    27d4:	b9 bb d4 5a ed       	mov    $0xed5ad4bb,%ecx
    27d9:	8f c2                	pop    %rdx
    27db:	48 8b c2             	mov    %rdx,%rax
    27de:	f7 e1                	mul    %ecx
    27e0:	48 8b d0             	mov    %rax,%rdx
    27e3:	ff f2                	push   %rdx
    27e5:	48 c7 c1 f0 ff ff ff 	mov    $0xfffffffffffffff0,%rcx
    27ec:	48 03 cd             	add    %rbp,%rcx
    27ef:	8f c2                	pop    %rdx
    27f1:	89 11                	mov    %edx,(%rcx)
        x ^= x >> 11;
    27f3:	8b 4d f0             	mov    -0x10(%rbp),%ecx
    27f6:	ff f1                	push   %rcx
    27f8:	8b 4d f0             	mov    -0x10(%rbp),%ecx
    27fb:	ff f1                	push   %rcx
    27fd:	b9 0b 00 00 00       	mov    $0xb,%ecx
    2802:	8f c2                	pop    %rdx
    2804:	48 d3 ea             	shr    %cl,%rdx
    2807:	8f c1                	pop    %rcx
    2809:	33 ca                	xor    %edx,%ecx
    280b:	ff f1                	push   %rcx
    280d:	48 c7 c1 f0 ff ff ff 	mov    $0xfffffffffffffff0,%rcx
    2814:	48 03 cd             	add    %rbp,%rcx
    2817:	8f c2                	pop    %rdx
    2819:	89 11                	mov    %edx,(%rcx)
        x *= 0xac4c1b51u;
    281b:	8b 4d f0             	mov    -0x10(%rbp),%ecx
    281e:	ff f1                	push   %rcx
    2820:	b9 51 1b 4c ac       	mov    $0xac4c1b51,%ecx
    2825:	8f c2                	pop    %rdx
    2827:	48 8b c2             	mov    %rdx,%rax
    282a:	f7 e1                	mul    %ecx
    282c:	48 8b d0             	mov    %rax,%rdx
    282f:	ff f2                	push   %rdx
    2831:	48 c7 c1 f0 ff ff ff 	mov    $0xfffffffffffffff0,%rcx
    2838:	48 03 cd             	add    %rbp,%rcx
    283b:	8f c2                	pop    %rdx
    283d:	89 11                	mov    %edx,(%rcx)
        x ^= x >> 15;
    283f:	8b 4d f0             	mov    -0x10(%rbp),%ecx
    2842:	ff f1                	push   %rcx
    2844:	8b 4d f0             	mov    -0x10(%rbp),%ecx
    2847:	ff f1                	push   %rcx
    2849:	b9 0f 00 00 00       	mov    $0xf,%ecx
    284e:	8f c2                	pop    %rdx
    2850:	48 d3 ea             	shr    %cl,%rdx
    2853:	8f c1                	pop    %rcx
    2855:	33 ca                	xor    %edx,%ecx
    2857:	ff f1                	push   %rcx
    2859:	48 c7 c1 f0 ff ff ff 	mov    $0xfffffffffffffff0,%rcx
    2860:	48 03 cd             	add    %rbp,%rcx
    2863:	8f c2                	pop    %rdx
    2865:	89 11                	mov    %edx,(%rcx)
        x *= 0x31848babu;
    2867:	8b 4d f0             	mov    -0x10(%rbp),%ecx
    286a:	ff f1                	push   %rcx
    286c:	b9 ab 8b 84 31       	mov    $0x31848bab,%ecx
    2871:	8f c2                	pop    %rdx
    2873:	48 8b c2             	mov    %rdx,%rax
    2876:	f7 e1                	mul    %ecx
    2878:	48 8b d0             	mov    %rax,%rdx
    287b:	ff f2                	push   %rdx
    287d:	48 c7 c1 f0 ff ff ff 	mov    $0xfffffffffffffff0,%rcx
    2884:	48 03 cd             	add    %rbp,%rcx
    2887:	8f c2                	pop    %rdx
    2889:	89 11                	mov    %edx,(%rcx)
        x ^= x >> 14;
    288b:	8b 4d f0             	mov    -0x10(%rbp),%ecx
    288e:	ff f1                	push   %rcx
    2890:	8b 4d f0             	mov    -0x10(%rbp),%ecx
    2893:	ff f1                	push   %rcx
    2895:	b9 0e 00 00 00       	mov    $0xe,%ecx
    289a:	8f c2                	pop    %rdx
    289c:	48 d3 ea             	shr    %cl,%rdx
    289f:	8f c1                	pop    %rcx
    28a1:	33 ca                	xor    %edx,%ecx
    28a3:	ff f1                	push   %rcx
    28a5:	48 c7 c1 f0 ff ff ff 	mov    $0xfffffffffffffff0,%rcx
    28ac:	48 03 cd             	add    %rbp,%rcx
    28af:	8f c2                	pop    %rdx
    28b1:	89 11                	mov    %edx,(%rcx)
        return x % cast<u32>table.size();
    28b3:	8b 4d f0             	mov    -0x10(%rbp),%ecx
    28b6:	ff f1                	push   %rcx
    28b8:	48 81 ec 10 00 00 00 	sub    $0x10,%rsp
    28bf:	48 8b 4d 10          	mov    0x10(%rbp),%rcx
    28c3:	48 8b c9             	mov    %rcx,%rcx
    28c6:	ba 10 00 00 00       	mov    $0x10,%edx
    28cb:	48 03 ca             	add    %rdx,%rcx
    28ce:	48 89 0c 24          	mov    %rcx,(%rsp)
    28d2:	e8 97 df ff ff       	call   86e <main+0x86e>
    28d7:	48 81 c4 10 00 00 00 	add    $0x10,%rsp
    28de:	8b 4c 24 d8          	mov    -0x28(%rsp),%ecx
    28e2:	48 63 c9             	movslq %ecx,%rcx
    28e5:	8b d1                	mov    %ecx,%edx
    28e7:	8f c1                	pop    %rcx
    28e9:	48 8b fa             	mov    %rdx,%rdi
    28ec:	48 8b c1             	mov    %rcx,%rax
    28ef:	48 33 d2             	xor    %rdx,%rdx
    28f2:	f7 f7                	div    %edi
    28f4:	48 8b ca             	mov    %rdx,%rcx
    28f7:	48 8b d7             	mov    %rdi,%rdx
    28fa:	8b d1                	mov    %ecx,%edx
    28fc:	89 55 f8             	mov    %edx,-0x8(%rbp)
    28ff:	48 81 c4 18 00 00 00 	add    $0x18,%rsp
    2906:	8f c5                	pop    %rbp
    2908:	c3                   	ret
    }
    // TODO: Implement i64 hash
    fn hash(num: i32) -> i32 {
    2909:	ff f5                	push   %rbp
    290b:	48 8b ec             	mov    %rsp,%rbp
    290e:	48 81 ec 18 00 00 00 	sub    $0x18,%rsp
        if table.size() == 0
    2915:	48 81 ec 08 00 00 00 	sub    $0x8,%rsp
    291c:	48 8b 4d 10          	mov    0x10(%rbp),%rcx
    2920:	48 8b c9             	mov    %rcx,%rcx
    2923:	ba 10 00 00 00       	mov    $0x10,%edx
    2928:	48 03 ca             	add    %rdx,%rcx
    292b:	48 89 0c 24          	mov    %rcx,(%rsp)
    292f:	e8 3a df ff ff       	call   86e <main+0x86e>
    2934:	48 81 c4 08 00 00 00 	add    $0x8,%rsp
    293b:	8b 4c 24 e0          	mov    -0x20(%rsp),%ecx
    293f:	48 63 c9             	movslq %ecx,%rcx
    2942:	ff f1                	push   %rcx
    2944:	b9 00 00 00 00       	mov    $0x0,%ecx
    2949:	8f c2                	pop    %rdx
    294b:	3b d1                	cmp    %ecx,%edx
    294d:	40 0f 94 c2          	rex sete %dl
    2951:	48 0f b6 d2          	movzbq %dl,%rdx
    2955:	48 83 fa 00          	cmp    $0x0,%rdx
    2959:	0f 84 12 00 00 00    	je     2971 <main+0x2971>
            return 0;
    295f:	b9 00 00 00 00       	mov    $0x0,%ecx
    2964:	89 4d f8             	mov    %ecx,-0x8(%rbp)
    2967:	48 81 c4 18 00 00 00 	add    $0x18,%rsp
    296e:	8f c5                	pop    %rbp
    2970:	c3                   	ret
        // https://www.shadertoy.com/view/WttXWX
        x: u32 = num;
    2971:	8b 4d 18             	mov    0x18(%rbp),%ecx
    2974:	48 63 c9             	movslq %ecx,%rcx
    2977:	8b d1                	mov    %ecx,%edx
    2979:	89 55 f0             	mov    %edx,-0x10(%rbp)
        x ^= x >> 17;
    297c:	8b 4d f0             	mov    -0x10(%rbp),%ecx
    297f:	ff f1                	push   %rcx
    2981:	8b 4d f0             	mov    -0x10(%rbp),%ecx
    2984:	ff f1                	push   %rcx
    2986:	b9 11 00 00 00       	mov    $0x11,%ecx
    298b:	8f c2                	pop    %rdx
    298d:	48 d3 ea             	shr    %cl,%rdx
    2990:	8f c1                	pop    %rcx
    2992:	33 ca                	xor    %edx,%ecx
    2994:	ff f1                	push   %rcx
    2996:	48 c7 c1 f0 ff ff ff 	mov    $0xfffffffffffffff0,%rcx
    299d:	48 03 cd             	add    %rbp,%rcx
    29a0:	8f c2                	pop    %rdx
    29a2:	89 11                	mov    %edx,(%rcx)
        x *= 0xed5ad4bbu;
    29a4:	8b 4d f0             	mov    -0x10(%rbp),%ecx
    29a7:	ff f1                	push   %rcx
    29a9:	b9 bb d4 5a ed       	mov    $0xed5ad4bb,%ecx
    29ae:	8f c2                	pop    %rdx
    29b0:	48 8b c2             	mov    %rdx,%rax
    29b3:	f7 e1                	mul    %ecx
    29b5:	48 8b d0             	mov    %rax,%rdx
    29b8:	ff f2                	push   %rdx
    29ba:	48 c7 c1 f0 ff ff ff 	mov    $0xfffffffffffffff0,%rcx
    29c1:	48 03 cd             	add    %rbp,%rcx
    29c4:	8f c2                	pop    %rdx
    29c6:	89 11                	mov    %edx,(%rcx)
        x ^= x >> 11;
    29c8:	8b 4d f0             	mov    -0x10(%rbp),%ecx
    29cb:	ff f1                	push   %rcx
    29cd:	8b 4d f0             	mov    -0x10(%rbp),%ecx
    29d0:	ff f1                	push   %rcx
    29d2:	b9 0b 00 00 00       	mov    $0xb,%ecx
    29d7:	8f c2                	pop    %rdx
    29d9:	48 d3 ea             	shr    %cl,%rdx
    29dc:	8f c1                	pop    %rcx
    29de:	33 ca                	xor    %edx,%ecx
    29e0:	ff f1                	push   %rcx
    29e2:	48 c7 c1 f0 ff ff ff 	mov    $0xfffffffffffffff0,%rcx
    29e9:	48 03 cd             	add    %rbp,%rcx
    29ec:	8f c2                	pop    %rdx
    29ee:	89 11                	mov    %edx,(%rcx)
        x *= 0xac4c1b51u;
    29f0:	8b 4d f0             	mov    -0x10(%rbp),%ecx
    29f3:	ff f1                	push   %rcx
    29f5:	b9 51 1b 4c ac       	mov    $0xac4c1b51,%ecx
    29fa:	8f c2                	pop    %rdx
    29fc:	48 8b c2             	mov    %rdx,%rax
    29ff:	f7 e1                	mul    %ecx
    2a01:	48 8b d0             	mov    %rax,%rdx
    2a04:	ff f2                	push   %rdx
    2a06:	48 c7 c1 f0 ff ff ff 	mov    $0xfffffffffffffff0,%rcx
    2a0d:	48 03 cd             	add    %rbp,%rcx
    2a10:	8f c2                	pop    %rdx
    2a12:	89 11                	mov    %edx,(%rcx)
        x ^= x >> 15;
    2a14:	8b 4d f0             	mov    -0x10(%rbp),%ecx
    2a17:	ff f1                	push   %rcx
    2a19:	8b 4d f0             	mov    -0x10(%rbp),%ecx
    2a1c:	ff f1                	push   %rcx
    2a1e:	b9 0f 00 00 00       	mov    $0xf,%ecx
    2a23:	8f c2                	pop    %rdx
    2a25:	48 d3 ea             	shr    %cl,%rdx
    2a28:	8f c1                	pop    %rcx
    2a2a:	33 ca                	xor    %edx,%ecx
    2a2c:	ff f1                	push   %rcx
    2a2e:	48 c7 c1 f0 ff ff ff 	mov    $0xfffffffffffffff0,%rcx
    2a35:	48 03 cd             	add    %rbp,%rcx
    2a38:	8f c2                	pop    %rdx
    2a3a:	89 11                	mov    %edx,(%rcx)
        x *= 0x31848babu;
    2a3c:	8b 4d f0             	mov    -0x10(%rbp),%ecx
    2a3f:	ff f1                	push   %rcx
    2a41:	b9 ab 8b 84 31       	mov    $0x31848bab,%ecx
    2a46:	8f c2                	pop    %rdx
    2a48:	48 8b c2             	mov    %rdx,%rax
    2a4b:	f7 e1                	mul    %ecx
    2a4d:	48 8b d0             	mov    %rax,%rdx
    2a50:	ff f2                	push   %rdx
    2a52:	48 c7 c1 f0 ff ff ff 	mov    $0xfffffffffffffff0,%rcx
    2a59:	48 03 cd             	add    %rbp,%rcx
    2a5c:	8f c2                	pop    %rdx
    2a5e:	89 11                	mov    %edx,(%rcx)
        x ^= x >> 14;
    2a60:	8b 4d f0             	mov    -0x10(%rbp),%ecx
    2a63:	ff f1                	push   %rcx
    2a65:	8b 4d f0             	mov    -0x10(%rbp),%ecx
    2a68:	ff f1                	push   %rcx
    2a6a:	b9 0e 00 00 00       	mov    $0xe,%ecx
    2a6f:	8f c2                	pop    %rdx
    2a71:	48 d3 ea             	shr    %cl,%rdx
    2a74:	8f c1                	pop    %rcx
    2a76:	33 ca                	xor    %edx,%ecx
    2a78:	ff f1                	push   %rcx
    2a7a:	48 c7 c1 f0 ff ff ff 	mov    $0xfffffffffffffff0,%rcx
    2a81:	48 03 cd             	add    %rbp,%rcx
    2a84:	8f c2                	pop    %rdx
    2a86:	89 11                	mov    %edx,(%rcx)
        return x % cast<u32>table.size();
    2a88:	8b 4d f0             	mov    -0x10(%rbp),%ecx
    2a8b:	ff f1                	push   %rcx
    2a8d:	48 81 ec 10 00 00 00 	sub    $0x10,%rsp
    2a94:	48 8b 4d 10          	mov    0x10(%rbp),%rcx
    2a98:	48 8b c9             	mov    %rcx,%rcx
    2a9b:	ba 10 00 00 00       	mov    $0x10,%edx
    2aa0:	48 03 ca             	add    %rdx,%rcx
    2aa3:	48 89 0c 24          	mov    %rcx,(%rsp)
    2aa7:	e8 c2 dd ff ff       	call   86e <main+0x86e>
    2aac:	48 81 c4 10 00 00 00 	add    $0x10,%rsp
    2ab3:	8b 4c 24 d8          	mov    -0x28(%rsp),%ecx
    2ab7:	48 63 c9             	movslq %ecx,%rcx
    2aba:	8b d1                	mov    %ecx,%edx
    2abc:	8f c1                	pop    %rcx
    2abe:	48 8b fa             	mov    %rdx,%rdi
    2ac1:	48 8b c1             	mov    %rcx,%rax
    2ac4:	48 33 d2             	xor    %rdx,%rdx
    2ac7:	f7 f7                	div    %edi
    2ac9:	48 8b ca             	mov    %rdx,%rcx
    2acc:	48 8b d7             	mov    %rdi,%rdx
    2acf:	8b d1                	mov    %ecx,%edx
    2ad1:	89 55 f8             	mov    %edx,-0x8(%rbp)
    2ad4:	48 81 c4 18 00 00 00 	add    $0x18,%rsp
    2adb:	8f c5                	pop    %rbp
    2add:	c3                   	ret
    // not named size() because memory isn't contiguous like an array
    fn getCount() -> i32 {
        return count;
    }
    // internal function
    fn find_chain_unsafe(key: Key) -> MapChain<Key,Val>* {
    2ade:	ff f5                	push   %rbp
    2ae0:	48 8b ec             	mov    %rsp,%rbp
    2ae3:	48 81 ec 28 00 00 00 	sub    $0x28,%rsp
        slot := hash(key);
    2aea:	48 81 ec 18 00 00 00 	sub    $0x18,%rsp
    2af1:	48 8b 4d 10          	mov    0x10(%rbp),%rcx
    2af5:	48 8b c9             	mov    %rcx,%rcx
    2af8:	ff f1                	push   %rcx
    2afa:	48 8b 4d 18          	mov    0x18(%rbp),%rcx
    2afe:	48 89 4c 24 10       	mov    %rcx,0x10(%rsp)
    2b03:	8f c1                	pop    %rcx
    2b05:	48 89 0c 24          	mov    %rcx,(%rsp)
    2b09:	e8 1a fc ff ff       	call   2728 <main+0x2728>
    2b0e:	48 81 c4 18 00 00 00 	add    $0x18,%rsp
    2b15:	8b 4c 24 d0          	mov    -0x30(%rsp),%ecx
    2b19:	48 63 c9             	movslq %ecx,%rcx
    2b1c:	89 4d f0             	mov    %ecx,-0x10(%rbp)
        if slot >= table.len
    2b1f:	8b 4d f0             	mov    -0x10(%rbp),%ecx
    2b22:	ff f1                	push   %rcx
    2b24:	48 8b 4d 10          	mov    0x10(%rbp),%rcx
    2b28:	48 8b c9             	mov    %rcx,%rcx
    2b2b:	ba 10 00 00 00       	mov    $0x10,%edx
    2b30:	48 03 ca             	add    %rdx,%rcx
    2b33:	ba 0c 00 00 00       	mov    $0xc,%edx
    2b38:	48 03 ca             	add    %rdx,%rcx
    2b3b:	8b 11                	mov    (%rcx),%edx
    2b3d:	8f c1                	pop    %rcx
    2b3f:	3b ca                	cmp    %edx,%ecx
    2b41:	40 0f 9d c1          	rex setge %cl
    2b45:	48 0f b6 c9          	movzbq %cl,%rcx
    2b49:	48 83 f9 00          	cmp    $0x0,%rcx
    2b4d:	0f 84 13 00 00 00    	je     2b66 <main+0x2b66>
            return null;
    2b53:	b9 00 00 00 00       	mov    $0x0,%ecx
    2b58:	48 89 4d f8          	mov    %rcx,-0x8(%rbp)
    2b5c:	48 81 c4 28 00 00 00 	add    $0x28,%rsp
    2b63:	8f c5                	pop    %rbp
    2b65:	c3                   	ret
        index := table.get(slot);
    2b66:	48 81 ec 18 00 00 00 	sub    $0x18,%rsp
    2b6d:	48 8b 4d 10          	mov    0x10(%rbp),%rcx
    2b71:	48 8b c9             	mov    %rcx,%rcx
    2b74:	ba 10 00 00 00       	mov    $0x10,%edx
    2b79:	48 03 ca             	add    %rdx,%rcx
    2b7c:	ff f1                	push   %rcx
    2b7e:	8b 4d f0             	mov    -0x10(%rbp),%ecx
    2b81:	89 4c 24 10          	mov    %ecx,0x10(%rsp)
    2b85:	8f c1                	pop    %rcx
    2b87:	48 89 0c 24          	mov    %rcx,(%rsp)
    2b8b:	e8 b9 dd ff ff       	call   949 <main+0x949>
    2b90:	48 81 c4 18 00 00 00 	add    $0x18,%rsp
    2b97:	8b 4c 24 d0          	mov    -0x30(%rsp),%ecx
    2b9b:	48 63 c9             	movslq %ecx,%rcx
    2b9e:	89 4d e8             	mov    %ecx,-0x18(%rbp)
        
        if index == 0
    2ba1:	8b 4d e8             	mov    -0x18(%rbp),%ecx
    2ba4:	ff f1                	push   %rcx
    2ba6:	b9 00 00 00 00       	mov    $0x0,%ecx
    2bab:	8f c2                	pop    %rdx
    2bad:	3b d1                	cmp    %ecx,%edx
    2baf:	40 0f 94 c2          	rex sete %dl
    2bb3:	48 0f b6 d2          	movzbq %dl,%rdx
    2bb7:	48 83 fa 00          	cmp    $0x0,%rdx
    2bbb:	0f 84 13 00 00 00    	je     2bd4 <main+0x2bd4>
            return null;
    2bc1:	b9 00 00 00 00       	mov    $0x0,%ecx
    2bc6:	48 89 4d f8          	mov    %rcx,-0x8(%rbp)
    2bca:	48 81 c4 28 00 00 00 	add    $0x28,%rsp
    2bd1:	8f c5                	pop    %rbp
    2bd3:	c3                   	ret
        while {
            chain := chains.get_unsafe(index-1);
    2bd4:	48 81 ec 18 00 00 00 	sub    $0x18,%rsp
    2bdb:	48 8b 4d 10          	mov    0x10(%rbp),%rcx
    2bdf:	48 8b c9             	mov    %rcx,%rcx
    2be2:	ba 00 00 00 00       	mov    $0x0,%edx
    2be7:	48 03 ca             	add    %rdx,%rcx
    2bea:	ff f1                	push   %rcx
    2bec:	8b 4d e8             	mov    -0x18(%rbp),%ecx
    2bef:	ff f1                	push   %rcx
    2bf1:	b9 01 00 00 00       	mov    $0x1,%ecx
    2bf6:	8f c2                	pop    %rdx
    2bf8:	2b d1                	sub    %ecx,%edx
    2bfa:	89 54 24 10          	mov    %edx,0x10(%rsp)
    2bfe:	8f c1                	pop    %rcx
    2c00:	48 89 0c 24          	mov    %rcx,(%rsp)
    2c04:	e8 bb dd ff ff       	call   9c4 <main+0x9c4>
    2c09:	48 81 c4 18 00 00 00 	add    $0x18,%rsp
    2c10:	48 8b 4c 24 d0       	mov    -0x30(%rsp),%rcx
    2c15:	48 89 4d e0          	mov    %rcx,-0x20(%rbp)
            if !chain
    2c19:	48 8b 4d e0          	mov    -0x20(%rbp),%rcx
    2c1d:	48 85 c9             	test   %rcx,%rcx
    2c20:	40 0f 94 c1          	rex sete %cl
    2c24:	48 0f b6 c9          	movzbq %cl,%rcx
    2c28:	48 83 f9 00          	cmp    $0x0,%rcx
    2c2c:	0f 84 13 00 00 00    	je     2c45 <main+0x2c45>
                return null;
    2c32:	b9 00 00 00 00       	mov    $0x0,%ecx
    2c37:	48 89 4d f8          	mov    %rcx,-0x8(%rbp)
    2c3b:	48 81 c4 28 00 00 00 	add    $0x28,%rsp
    2c42:	8f c5                	pop    %rbp
    2c44:	c3                   	ret
            if !chain.unused && chain.key == key {
    2c45:	48 c7 c1 e0 ff ff ff 	mov    $0xffffffffffffffe0,%rcx
    2c4c:	48 03 cd             	add    %rbp,%rcx
    2c4f:	48 8b 11             	mov    (%rcx),%rdx
    2c52:	b9 0c 00 00 00       	mov    $0xc,%ecx
    2c57:	48 03 d1             	add    %rcx,%rdx
    2c5a:	48 8a 0a             	rex.W mov (%rdx),%cl
    2c5d:	48 0f b6 c9          	movzbq %cl,%rcx
    2c61:	48 85 c9             	test   %rcx,%rcx
    2c64:	40 0f 94 c1          	rex sete %cl
    2c68:	48 0f b6 c9          	movzbq %cl,%rcx
    2c6c:	ff f1                	push   %rcx
    2c6e:	48 c7 c1 e0 ff ff ff 	mov    $0xffffffffffffffe0,%rcx
    2c75:	48 03 cd             	add    %rbp,%rcx
    2c78:	48 8b 11             	mov    (%rcx),%rdx
    2c7b:	48 8b 0a             	mov    (%rdx),%rcx
    2c7e:	ff f1                	push   %rcx
    2c80:	48 8b 4d 18          	mov    0x18(%rbp),%rcx
    2c84:	8f c2                	pop    %rdx
    2c86:	48 3b d1             	cmp    %rcx,%rdx
    2c89:	40 0f 94 c2          	rex sete %dl
    2c8d:	48 0f b6 d2          	movzbq %dl,%rdx
    2c91:	8f c1                	pop    %rcx
    2c93:	48 85 c9             	test   %rcx,%rcx
    2c96:	74 0a                	je     2ca2 <main+0x2ca2>
    2c98:	48 85 d2             	test   %rdx,%rdx
    2c9b:	74 05                	je     2ca2 <main+0x2ca2>
    2c9d:	c6 c1 01             	mov    $0x1,%cl
    2ca0:	eb 03                	jmp    2ca5 <main+0x2ca5>
    2ca2:	c6 c1 00             	mov    $0x0,%cl
    2ca5:	48 0f b6 c9          	movzbq %cl,%rcx
    2ca9:	48 83 f9 00          	cmp    $0x0,%rcx
    2cad:	0f 84 12 00 00 00    	je     2cc5 <main+0x2cc5>
                return chain;
    2cb3:	48 8b 4d e0          	mov    -0x20(%rbp),%rcx
    2cb7:	48 89 4d f8          	mov    %rcx,-0x8(%rbp)
    2cbb:	48 81 c4 28 00 00 00 	add    $0x28,%rsp
    2cc2:	8f c5                	pop    %rbp
    2cc4:	c3                   	ret
            }
            if chain.next == MAP_CHAIN_INDEX_NULL
    2cc5:	48 c7 c1 e0 ff ff ff 	mov    $0xffffffffffffffe0,%rcx
    2ccc:	48 03 cd             	add    %rbp,%rcx
    2ccf:	48 8b 11             	mov    (%rcx),%rdx
    2cd2:	b9 08 00 00 00       	mov    $0x8,%ecx
    2cd7:	48 03 d1             	add    %rcx,%rdx
    2cda:	8b 0a                	mov    (%rdx),%ecx
    2cdc:	ff f1                	push   %rcx
    2cde:	b9 00 00 00 00       	mov    $0x0,%ecx
    2ce3:	8f c2                	pop    %rdx
    2ce5:	3b d1                	cmp    %ecx,%edx
    2ce7:	40 0f 94 c2          	rex sete %dl
    2ceb:	48 0f b6 d2          	movzbq %dl,%rdx
    2cef:	48 83 fa 00          	cmp    $0x0,%rdx
    2cf3:	0f 84 13 00 00 00    	je     2d0c <main+0x2d0c>
                return null;
    2cf9:	b9 00 00 00 00       	mov    $0x0,%ecx
    2cfe:	48 89 4d f8          	mov    %rcx,-0x8(%rbp)
    2d02:	48 81 c4 28 00 00 00 	add    $0x28,%rsp
    2d09:	8f c5                	pop    %rbp
    2d0b:	c3                   	ret
            index = chain.next;
    2d0c:	48 c7 c1 e0 ff ff ff 	mov    $0xffffffffffffffe0,%rcx
    2d13:	48 03 cd             	add    %rbp,%rcx
    2d16:	48 8b 11             	mov    (%rcx),%rdx
    2d19:	b9 08 00 00 00       	mov    $0x8,%ecx
    2d1e:	48 03 d1             	add    %rcx,%rdx
    2d21:	8b 0a                	mov    (%rdx),%ecx
    2d23:	ff f1                	push   %rcx
    2d25:	48 c7 c1 e8 ff ff ff 	mov    $0xffffffffffffffe8,%rcx
    2d2c:	48 03 cd             	add    %rbp,%rcx
    2d2f:	8f c2                	pop    %rdx
    2d31:	89 11                	mov    %edx,(%rcx)
    2d33:	e9 9c fe ff ff       	jmp    2bd4 <main+0x2bd4>
        }
        return null;
    2d38:	b9 00 00 00 00       	mov    $0x0,%ecx
    2d3d:	48 89 4d f8          	mov    %rcx,-0x8(%rbp)
    2d41:	48 81 c4 28 00 00 00 	add    $0x28,%rsp
    2d48:	8f c5                	pop    %rbp
    2d4a:	c3                   	ret
    fn find_chain_unsafe(key: Key) -> MapChain<Key,Val>* {
    2d4b:	ff f5                	push   %rbp
    2d4d:	48 8b ec             	mov    %rsp,%rbp
    2d50:	48 81 ec 28 00 00 00 	sub    $0x28,%rsp
        slot := hash(key);
    2d57:	48 81 ec 18 00 00 00 	sub    $0x18,%rsp
    2d5e:	48 8b 4d 10          	mov    0x10(%rbp),%rcx
    2d62:	48 8b c9             	mov    %rcx,%rcx
    2d65:	ff f1                	push   %rcx
    2d67:	8b 4d 18             	mov    0x18(%rbp),%ecx
    2d6a:	8b c9                	mov    %ecx,%ecx
    2d6c:	8b d1                	mov    %ecx,%edx
    2d6e:	89 54 24 10          	mov    %edx,0x10(%rsp)
    2d72:	8f c1                	pop    %rcx
    2d74:	48 89 0c 24          	mov    %rcx,(%rsp)
    2d78:	e8 8c fb ff ff       	call   2909 <main+0x2909>
    2d7d:	48 81 c4 18 00 00 00 	add    $0x18,%rsp
    2d84:	8b 4c 24 d0          	mov    -0x30(%rsp),%ecx
    2d88:	48 63 c9             	movslq %ecx,%rcx
    2d8b:	89 4d f0             	mov    %ecx,-0x10(%rbp)
        if slot >= table.len
    2d8e:	8b 4d f0             	mov    -0x10(%rbp),%ecx
    2d91:	ff f1                	push   %rcx
    2d93:	48 8b 4d 10          	mov    0x10(%rbp),%rcx
    2d97:	48 8b c9             	mov    %rcx,%rcx
    2d9a:	ba 10 00 00 00       	mov    $0x10,%edx
    2d9f:	48 03 ca             	add    %rdx,%rcx
    2da2:	ba 0c 00 00 00       	mov    $0xc,%edx
    2da7:	48 03 ca             	add    %rdx,%rcx
    2daa:	8b 11                	mov    (%rcx),%edx
    2dac:	8f c1                	pop    %rcx
    2dae:	3b ca                	cmp    %edx,%ecx
    2db0:	40 0f 9d c1          	rex setge %cl
    2db4:	48 0f b6 c9          	movzbq %cl,%rcx
    2db8:	48 83 f9 00          	cmp    $0x0,%rcx
    2dbc:	0f 84 13 00 00 00    	je     2dd5 <main+0x2dd5>
            return null;
    2dc2:	b9 00 00 00 00       	mov    $0x0,%ecx
    2dc7:	48 89 4d f8          	mov    %rcx,-0x8(%rbp)
    2dcb:	48 81 c4 28 00 00 00 	add    $0x28,%rsp
    2dd2:	8f c5                	pop    %rbp
    2dd4:	c3                   	ret
        index := table.get(slot);
    2dd5:	48 81 ec 18 00 00 00 	sub    $0x18,%rsp
    2ddc:	48 8b 4d 10          	mov    0x10(%rbp),%rcx
    2de0:	48 8b c9             	mov    %rcx,%rcx
    2de3:	ba 10 00 00 00       	mov    $0x10,%edx
    2de8:	48 03 ca             	add    %rdx,%rcx
    2deb:	ff f1                	push   %rcx
    2ded:	8b 4d f0             	mov    -0x10(%rbp),%ecx
    2df0:	89 4c 24 10          	mov    %ecx,0x10(%rsp)
    2df4:	8f c1                	pop    %rcx
    2df6:	48 89 0c 24          	mov    %rcx,(%rsp)
    2dfa:	e8 4a db ff ff       	call   949 <main+0x949>
    2dff:	48 81 c4 18 00 00 00 	add    $0x18,%rsp
    2e06:	8b 4c 24 d0          	mov    -0x30(%rsp),%ecx
    2e0a:	48 63 c9             	movslq %ecx,%rcx
    2e0d:	89 4d e8             	mov    %ecx,-0x18(%rbp)
        if index == 0
    2e10:	8b 4d e8             	mov    -0x18(%rbp),%ecx
    2e13:	ff f1                	push   %rcx
    2e15:	b9 00 00 00 00       	mov    $0x0,%ecx
    2e1a:	8f c2                	pop    %rdx
    2e1c:	3b d1                	cmp    %ecx,%edx
    2e1e:	40 0f 94 c2          	rex sete %dl
    2e22:	48 0f b6 d2          	movzbq %dl,%rdx
    2e26:	48 83 fa 00          	cmp    $0x0,%rdx
    2e2a:	0f 84 13 00 00 00    	je     2e43 <main+0x2e43>
            return null;
    2e30:	b9 00 00 00 00       	mov    $0x0,%ecx
    2e35:	48 89 4d f8          	mov    %rcx,-0x8(%rbp)
    2e39:	48 81 c4 28 00 00 00 	add    $0x28,%rsp
    2e40:	8f c5                	pop    %rbp
    2e42:	c3                   	ret
            chain := chains.get_unsafe(index-1);
    2e43:	48 81 ec 18 00 00 00 	sub    $0x18,%rsp
    2e4a:	48 8b 4d 10          	mov    0x10(%rbp),%rcx
    2e4e:	48 8b c9             	mov    %rcx,%rcx
    2e51:	ba 00 00 00 00       	mov    $0x0,%edx
    2e56:	48 03 ca             	add    %rdx,%rcx
    2e59:	ff f1                	push   %rcx
    2e5b:	8b 4d e8             	mov    -0x18(%rbp),%ecx
    2e5e:	ff f1                	push   %rcx
    2e60:	b9 01 00 00 00       	mov    $0x1,%ecx
    2e65:	8f c2                	pop    %rdx
    2e67:	2b d1                	sub    %ecx,%edx
    2e69:	89 54 24 10          	mov    %edx,0x10(%rsp)
    2e6d:	8f c1                	pop    %rcx
    2e6f:	48 89 0c 24          	mov    %rcx,(%rsp)
    2e73:	e8 d4 db ff ff       	call   a4c <main+0xa4c>
    2e78:	48 81 c4 18 00 00 00 	add    $0x18,%rsp
    2e7f:	48 8b 4c 24 d0       	mov    -0x30(%rsp),%rcx
    2e84:	48 89 4d e0          	mov    %rcx,-0x20(%rbp)
            if !chain
    2e88:	48 8b 4d e0          	mov    -0x20(%rbp),%rcx
    2e8c:	48 85 c9             	test   %rcx,%rcx
    2e8f:	40 0f 94 c1          	rex sete %cl
    2e93:	48 0f b6 c9          	movzbq %cl,%rcx
    2e97:	48 83 f9 00          	cmp    $0x0,%rcx
    2e9b:	0f 84 13 00 00 00    	je     2eb4 <main+0x2eb4>
                return null;
    2ea1:	b9 00 00 00 00       	mov    $0x0,%ecx
    2ea6:	48 89 4d f8          	mov    %rcx,-0x8(%rbp)
    2eaa:	48 81 c4 28 00 00 00 	add    $0x28,%rsp
    2eb1:	8f c5                	pop    %rbp
    2eb3:	c3                   	ret
            if !chain.unused && chain.key == key {
    2eb4:	48 c7 c1 e0 ff ff ff 	mov    $0xffffffffffffffe0,%rcx
    2ebb:	48 03 cd             	add    %rbp,%rcx
    2ebe:	48 8b 11             	mov    (%rcx),%rdx
    2ec1:	b9 08 00 00 00       	mov    $0x8,%ecx
    2ec6:	48 03 d1             	add    %rcx,%rdx
    2ec9:	48 8a 0a             	rex.W mov (%rdx),%cl
    2ecc:	48 0f b6 c9          	movzbq %cl,%rcx
    2ed0:	48 85 c9             	test   %rcx,%rcx
    2ed3:	40 0f 94 c1          	rex sete %cl
    2ed7:	48 0f b6 c9          	movzbq %cl,%rcx
    2edb:	ff f1                	push   %rcx
    2edd:	48 c7 c1 e0 ff ff ff 	mov    $0xffffffffffffffe0,%rcx
    2ee4:	48 03 cd             	add    %rbp,%rcx
    2ee7:	48 8b 11             	mov    (%rcx),%rdx
    2eea:	8b 0a                	mov    (%rdx),%ecx
    2eec:	ff f1                	push   %rcx
    2eee:	8b 4d 18             	mov    0x18(%rbp),%ecx
    2ef1:	8b c9                	mov    %ecx,%ecx
    2ef3:	8f c2                	pop    %rdx
    2ef5:	3b d1                	cmp    %ecx,%edx
    2ef7:	40 0f 94 c2          	rex sete %dl
    2efb:	48 0f b6 d2          	movzbq %dl,%rdx
    2eff:	8f c1                	pop    %rcx
    2f01:	48 85 c9             	test   %rcx,%rcx
    2f04:	74 0a                	je     2f10 <main+0x2f10>
    2f06:	48 85 d2             	test   %rdx,%rdx
    2f09:	74 05                	je     2f10 <main+0x2f10>
    2f0b:	c6 c1 01             	mov    $0x1,%cl
    2f0e:	eb 03                	jmp    2f13 <main+0x2f13>
    2f10:	c6 c1 00             	mov    $0x0,%cl
    2f13:	48 0f b6 c9          	movzbq %cl,%rcx
    2f17:	48 83 f9 00          	cmp    $0x0,%rcx
    2f1b:	0f 84 12 00 00 00    	je     2f33 <main+0x2f33>
                return chain;
    2f21:	48 8b 4d e0          	mov    -0x20(%rbp),%rcx
    2f25:	48 89 4d f8          	mov    %rcx,-0x8(%rbp)
    2f29:	48 81 c4 28 00 00 00 	add    $0x28,%rsp
    2f30:	8f c5                	pop    %rbp
    2f32:	c3                   	ret
            if chain.next == MAP_CHAIN_INDEX_NULL
    2f33:	48 c7 c1 e0 ff ff ff 	mov    $0xffffffffffffffe0,%rcx
    2f3a:	48 03 cd             	add    %rbp,%rcx
    2f3d:	48 8b 11             	mov    (%rcx),%rdx
    2f40:	b9 04 00 00 00       	mov    $0x4,%ecx
    2f45:	48 03 d1             	add    %rcx,%rdx
    2f48:	8b 0a                	mov    (%rdx),%ecx
    2f4a:	ff f1                	push   %rcx
    2f4c:	b9 00 00 00 00       	mov    $0x0,%ecx
    2f51:	8f c2                	pop    %rdx
    2f53:	3b d1                	cmp    %ecx,%edx
    2f55:	40 0f 94 c2          	rex sete %dl
    2f59:	48 0f b6 d2          	movzbq %dl,%rdx
    2f5d:	48 83 fa 00          	cmp    $0x0,%rdx
    2f61:	0f 84 13 00 00 00    	je     2f7a <main+0x2f7a>
                return null;
    2f67:	b9 00 00 00 00       	mov    $0x0,%ecx
    2f6c:	48 89 4d f8          	mov    %rcx,-0x8(%rbp)
    2f70:	48 81 c4 28 00 00 00 	add    $0x28,%rsp
    2f77:	8f c5                	pop    %rbp
    2f79:	c3                   	ret
            index = chain.next;
    2f7a:	48 c7 c1 e0 ff ff ff 	mov    $0xffffffffffffffe0,%rcx
    2f81:	48 03 cd             	add    %rbp,%rcx
    2f84:	48 8b 11             	mov    (%rcx),%rdx
    2f87:	b9 04 00 00 00       	mov    $0x4,%ecx
    2f8c:	48 03 d1             	add    %rcx,%rdx
    2f8f:	8b 0a                	mov    (%rdx),%ecx
    2f91:	ff f1                	push   %rcx
    2f93:	48 c7 c1 e8 ff ff ff 	mov    $0xffffffffffffffe8,%rcx
    2f9a:	48 03 cd             	add    %rbp,%rcx
    2f9d:	8f c2                	pop    %rdx
    2f9f:	89 11                	mov    %edx,(%rcx)
    2fa1:	e9 9d fe ff ff       	jmp    2e43 <main+0x2e43>
        return null;
    2fa6:	b9 00 00 00 00       	mov    $0x0,%ecx
    2fab:	48 89 4d f8          	mov    %rcx,-0x8(%rbp)
    2faf:	48 81 c4 28 00 00 00 	add    $0x28,%rsp
    2fb6:	8f c5                	pop    %rbp
    2fb8:	c3                   	ret
    }
    fn set(key: Key, val: Val) -> Val* {
    2fb9:	ff f5                	push   %rbp
    2fbb:	48 8b ec             	mov    %rsp,%rbp
    2fbe:	48 81 ec 30 00 00 00 	sub    $0x30,%rsp
        // if table.size() == 0 {
        //     log("Dude, you got to map.init before map.set-ing it") // TODO: Use assert instead
        // }
        slot := hash(key);
    2fc5:	48 81 ec 10 00 00 00 	sub    $0x10,%rsp
    2fcc:	48 8b 4d 10          	mov    0x10(%rbp),%rcx
    2fd0:	48 8b c9             	mov    %rcx,%rcx
    2fd3:	ff f1                	push   %rcx
    2fd5:	48 8b 4d 18          	mov    0x18(%rbp),%rcx
    2fd9:	48 89 4c 24 10       	mov    %rcx,0x10(%rsp)
    2fde:	8f c1                	pop    %rcx
    2fe0:	48 89 0c 24          	mov    %rcx,(%rsp)
    2fe4:	e8 3f f7 ff ff       	call   2728 <main+0x2728>
    2fe9:	48 81 c4 10 00 00 00 	add    $0x10,%rsp
    2ff0:	8b 4c 24 d8          	mov    -0x28(%rsp),%ecx
    2ff4:	48 63 c9             	movslq %ecx,%rcx
    2ff7:	89 4d f0             	mov    %ecx,-0x10(%rbp)
        if slot >= table.len {
    2ffa:	8b 4d f0             	mov    -0x10(%rbp),%ecx
    2ffd:	ff f1                	push   %rcx
    2fff:	48 8b 4d 10          	mov    0x10(%rbp),%rcx
    3003:	48 8b c9             	mov    %rcx,%rcx
    3006:	ba 10 00 00 00       	mov    $0x10,%edx
    300b:	48 03 ca             	add    %rdx,%rcx
    300e:	ba 0c 00 00 00       	mov    $0xc,%edx
    3013:	48 03 ca             	add    %rdx,%rcx
    3016:	8b 11                	mov    (%rcx),%edx
    3018:	8f c1                	pop    %rcx
    301a:	3b ca                	cmp    %edx,%ecx
    301c:	40 0f 9d c1          	rex setge %cl
    3020:	48 0f b6 c9          	movzbq %cl,%rcx
    3024:	48 83 f9 00          	cmp    $0x0,%rcx
    3028:	0f 84 91 00 00 00    	je     30bf <main+0x30bf>
            if table.len == 0
    302e:	48 8b 4d 10          	mov    0x10(%rbp),%rcx
    3032:	48 8b c9             	mov    %rcx,%rcx
    3035:	ba 10 00 00 00       	mov    $0x10,%edx
    303a:	48 03 ca             	add    %rdx,%rcx
    303d:	ba 0c 00 00 00       	mov    $0xc,%edx
    3042:	48 03 ca             	add    %rdx,%rcx
    3045:	8b 11                	mov    (%rcx),%edx
    3047:	ff f2                	push   %rdx
    3049:	b9 00 00 00 00       	mov    $0x0,%ecx
    304e:	8f c2                	pop    %rdx
    3050:	3b d1                	cmp    %ecx,%edx
    3052:	40 0f 94 c2          	rex sete %dl
    3056:	48 0f b6 d2          	movzbq %dl,%rdx
    305a:	48 83 fa 00          	cmp    $0x0,%rdx
    305e:	0f 84 48 00 00 00    	je     30ac <main+0x30ac>
                log("Dude, you forgot to initialize the hash map (Map.btb)")
    3064:	48 81 ec 10 00 00 00 	sub    $0x10,%rsp
    306b:	b9 35 00 00 00       	mov    $0x35,%ecx
    3070:	ff f1                	push   %rcx
    3072:	48 8d 0d 00 00 00 00 	lea    0x0(%rip),%rcx        # 3079 <main+0x3079>
    3079:	48 89 4c 24 08       	mov    %rcx,0x8(%rsp)
    307e:	8f c1                	pop    %rcx
    3080:	48 89 4c 24 08       	mov    %rcx,0x8(%rsp)
    3085:	e8 08 10 00 00       	call   4092 <main+0x4092>
    308a:	48 81 c4 10 00 00 00 	add    $0x10,%rsp
    3091:	48 81 ec 10 00 00 00 	sub    $0x10,%rsp
    3098:	b9 0a 00 00 00       	mov    $0xa,%ecx
    309d:	88 0c 24             	mov    %cl,(%rsp)
    30a0:	e8 4c 0f 00 00       	call   3ff1 <main+0x3ff1>
    30a5:	48 81 c4 10 00 00 00 	add    $0x10,%rsp
            return null;
    30ac:	b9 00 00 00 00       	mov    $0x0,%ecx
    30b1:	48 89 4d f8          	mov    %rcx,-0x8(%rbp)
    30b5:	48 81 c4 30 00 00 00 	add    $0x30,%rsp
    30bc:	8f c5                	pop    %rbp
    30be:	c3                   	ret
        }
        index := table.get(slot);
    30bf:	48 81 ec 10 00 00 00 	sub    $0x10,%rsp
    30c6:	48 8b 4d 10          	mov    0x10(%rbp),%rcx
    30ca:	48 8b c9             	mov    %rcx,%rcx
    30cd:	ba 10 00 00 00       	mov    $0x10,%edx
    30d2:	48 03 ca             	add    %rdx,%rcx
    30d5:	ff f1                	push   %rcx
    30d7:	8b 4d f0             	mov    -0x10(%rbp),%ecx
    30da:	89 4c 24 10          	mov    %ecx,0x10(%rsp)
    30de:	8f c1                	pop    %rcx
    30e0:	48 89 0c 24          	mov    %rcx,(%rsp)
    30e4:	e8 60 d8 ff ff       	call   949 <main+0x949>
    30e9:	48 81 c4 10 00 00 00 	add    $0x10,%rsp
    30f0:	8b 4c 24 d8          	mov    -0x28(%rsp),%ecx
    30f4:	48 63 c9             	movslq %ecx,%rcx
    30f7:	89 4d e8             	mov    %ecx,-0x18(%rbp)
        
        if index == 0 {
    30fa:	8b 4d e8             	mov    -0x18(%rbp),%ecx
    30fd:	ff f1                	push   %rcx
    30ff:	b9 00 00 00 00       	mov    $0x0,%ecx
    3104:	8f c2                	pop    %rdx
    3106:	3b d1                	cmp    %ecx,%edx
    3108:	40 0f 94 c2          	rex sete %dl
    310c:	48 0f b6 d2          	movzbq %dl,%rdx
    3110:	48 83 fa 00          	cmp    $0x0,%rdx
    3114:	0f 84 04 01 00 00    	je     321e <main+0x321e>
            chain := chains.add(MapChain<Key,Val>{key = key, next = 0, unused = false, val = val});
    311a:	48 81 ec 20 00 00 00 	sub    $0x20,%rsp
    3121:	48 8b 4d 10          	mov    0x10(%rbp),%rcx
    3125:	48 8b c9             	mov    %rcx,%rcx
    3128:	ba 00 00 00 00       	mov    $0x0,%edx
    312d:	48 03 ca             	add    %rdx,%rcx
    3130:	ff f1                	push   %rcx
    3132:	8b 4d 20             	mov    0x20(%rbp),%ecx
    3135:	48 63 c9             	movslq %ecx,%rcx
    3138:	ff f1                	push   %rcx
    313a:	b9 00 00 00 00       	mov    $0x0,%ecx
    313f:	ff f1                	push   %rcx
    3141:	b9 00 00 00 00       	mov    $0x0,%ecx
    3146:	ff f1                	push   %rcx
    3148:	48 8b 4d 18          	mov    0x18(%rbp),%rcx
    314c:	48 89 4c 24 28       	mov    %rcx,0x28(%rsp)
    3151:	8f c1                	pop    %rcx
    3153:	89 4c 24 28          	mov    %ecx,0x28(%rsp)
    3157:	8f c1                	pop    %rcx
    3159:	88 4c 24 24          	mov    %cl,0x24(%rsp)
    315d:	8f c1                	pop    %rcx
    315f:	89 4c 24 20          	mov    %ecx,0x20(%rsp)
    3163:	8f c1                	pop    %rcx
    3165:	48 89 0c 24          	mov    %rcx,(%rsp)
    3169:	e8 ad d1 ff ff       	call   31b <main+0x31b>
    316e:	48 81 c4 20 00 00 00 	add    $0x20,%rsp
    3175:	48 8b 4c 24 c8       	mov    -0x38(%rsp),%rcx
    317a:	48 89 4d e0          	mov    %rcx,-0x20(%rbp)
            table.ptr[slot] = chains.size(); // not size-1 because 0 is seen as null
    317e:	48 81 ec 10 00 00 00 	sub    $0x10,%rsp
    3185:	48 8b 4d 10          	mov    0x10(%rbp),%rcx
    3189:	48 8b c9             	mov    %rcx,%rcx
    318c:	ba 00 00 00 00       	mov    $0x0,%edx
    3191:	48 03 ca             	add    %rdx,%rcx
    3194:	48 89 0c 24          	mov    %rcx,(%rsp)
    3198:	e8 ae d6 ff ff       	call   84b <main+0x84b>
    319d:	48 81 c4 10 00 00 00 	add    $0x10,%rsp
    31a4:	8b 4c 24 d8          	mov    -0x28(%rsp),%ecx
    31a8:	48 63 c9             	movslq %ecx,%rcx
    31ab:	ff f1                	push   %rcx
    31ad:	48 8b 4d 10          	mov    0x10(%rbp),%rcx
    31b1:	48 8b c9             	mov    %rcx,%rcx
    31b4:	ba 10 00 00 00       	mov    $0x10,%edx
    31b9:	48 03 ca             	add    %rdx,%rcx
    31bc:	ff f1                	push   %rcx
    31be:	8b 4d f0             	mov    -0x10(%rbp),%ecx
    31c1:	8f c2                	pop    %rdx
    31c3:	48 8b 1a             	mov    (%rdx),%rbx
    31c6:	ba 04 00 00 00       	mov    $0x4,%edx
    31cb:	48 8b fa             	mov    %rdx,%rdi
    31ce:	48 8b c1             	mov    %rcx,%rax
    31d1:	48 f7 e7             	mul    %rdi
    31d4:	48 8b c8             	mov    %rax,%rcx
    31d7:	48 8b d7             	mov    %rdi,%rdx
    31da:	48 03 d9             	add    %rcx,%rbx
    31dd:	8f c1                	pop    %rcx
    31df:	89 0b                	mov    %ecx,(%rbx)
            count++;
    31e1:	48 8b 4d 10          	mov    0x10(%rbp),%rcx
    31e5:	48 8b c9             	mov    %rcx,%rcx
    31e8:	ba 20 00 00 00       	mov    $0x20,%edx
    31ed:	48 03 ca             	add    %rdx,%rcx
    31f0:	8b 11                	mov    (%rcx),%edx
    31f2:	48 81 c2 01 00 00 00 	add    $0x1,%rdx
    31f9:	89 11                	mov    %edx,(%rcx)
            return &chain.val;
    31fb:	48 c7 c1 e0 ff ff ff 	mov    $0xffffffffffffffe0,%rcx
    3202:	48 03 cd             	add    %rbp,%rcx
    3205:	48 8b 11             	mov    (%rcx),%rdx
    3208:	b9 10 00 00 00       	mov    $0x10,%ecx
    320d:	48 03 d1             	add    %rcx,%rdx
    3210:	48 89 55 f8          	mov    %rdx,-0x8(%rbp)
    3214:	48 81 c4 30 00 00 00 	add    $0x30,%rsp
    321b:	8f c5                	pop    %rbp
    321d:	c3                   	ret
        }
        while {
            chain := chains.get_unsafe(index-1); // -1 because 0 is null
    321e:	48 81 ec 10 00 00 00 	sub    $0x10,%rsp
    3225:	48 8b 4d 10          	mov    0x10(%rbp),%rcx
    3229:	48 8b c9             	mov    %rcx,%rcx
    322c:	ba 00 00 00 00       	mov    $0x0,%edx
    3231:	48 03 ca             	add    %rdx,%rcx
    3234:	ff f1                	push   %rcx
    3236:	8b 4d e8             	mov    -0x18(%rbp),%ecx
    3239:	ff f1                	push   %rcx
    323b:	b9 01 00 00 00       	mov    $0x1,%ecx
    3240:	8f c2                	pop    %rdx
    3242:	2b d1                	sub    %ecx,%edx
    3244:	89 54 24 10          	mov    %edx,0x10(%rsp)
    3248:	8f c1                	pop    %rcx
    324a:	48 89 0c 24          	mov    %rcx,(%rsp)
    324e:	e8 71 d7 ff ff       	call   9c4 <main+0x9c4>
    3253:	48 81 c4 10 00 00 00 	add    $0x10,%rsp
    325a:	48 8b 4c 24 d8       	mov    -0x28(%rsp),%rcx
    325f:	48 89 4d e0          	mov    %rcx,-0x20(%rbp)
            if !chain
    3263:	48 8b 4d e0          	mov    -0x20(%rbp),%rcx
    3267:	48 85 c9             	test   %rcx,%rcx
    326a:	40 0f 94 c1          	rex sete %cl
    326e:	48 0f b6 c9          	movzbq %cl,%rcx
    3272:	48 83 f9 00          	cmp    $0x0,%rcx
    3276:	0f 84 13 00 00 00    	je     328f <main+0x328f>
                return null; // TODO: Bug, assert instead
    327c:	b9 00 00 00 00       	mov    $0x0,%ecx
    3281:	48 89 4d f8          	mov    %rcx,-0x8(%rbp)
    3285:	48 81 c4 30 00 00 00 	add    $0x30,%rsp
    328c:	8f c5                	pop    %rbp
    328e:	c3                   	ret
            if chain.unused {
    328f:	48 c7 c1 e0 ff ff ff 	mov    $0xffffffffffffffe0,%rcx
    3296:	48 03 cd             	add    %rbp,%rcx
    3299:	48 8b 11             	mov    (%rcx),%rdx
    329c:	b9 0c 00 00 00       	mov    $0xc,%ecx
    32a1:	48 03 d1             	add    %rcx,%rdx
    32a4:	48 8a 0a             	rex.W mov (%rdx),%cl
    32a7:	48 0f b6 c9          	movzbq %cl,%rcx
    32ab:	48 83 f9 00          	cmp    $0x0,%rcx
    32af:	0f 84 76 00 00 00    	je     332b <main+0x332b>
                chain.key = key;
    32b5:	48 8b 4d 18          	mov    0x18(%rbp),%rcx
    32b9:	ff f1                	push   %rcx
    32bb:	48 c7 c1 e0 ff ff ff 	mov    $0xffffffffffffffe0,%rcx
    32c2:	48 03 cd             	add    %rbp,%rcx
    32c5:	48 8b 11             	mov    (%rcx),%rdx
    32c8:	8f c1                	pop    %rcx
    32ca:	48 89 0a             	mov    %rcx,(%rdx)
                chain.val = val;
    32cd:	8b 4d 20             	mov    0x20(%rbp),%ecx
    32d0:	48 63 c9             	movslq %ecx,%rcx
    32d3:	ff f1                	push   %rcx
    32d5:	48 c7 c1 e0 ff ff ff 	mov    $0xffffffffffffffe0,%rcx
    32dc:	48 03 cd             	add    %rbp,%rcx
    32df:	48 8b 11             	mov    (%rcx),%rdx
    32e2:	b9 10 00 00 00       	mov    $0x10,%ecx
    32e7:	48 03 d1             	add    %rcx,%rdx
    32ea:	8f c1                	pop    %rcx
    32ec:	89 0a                	mov    %ecx,(%rdx)
                count++;
    32ee:	48 8b 4d 10          	mov    0x10(%rbp),%rcx
    32f2:	48 8b c9             	mov    %rcx,%rcx
    32f5:	ba 20 00 00 00       	mov    $0x20,%edx
    32fa:	48 03 ca             	add    %rdx,%rcx
    32fd:	8b 11                	mov    (%rcx),%edx
    32ff:	48 81 c2 01 00 00 00 	add    $0x1,%rdx
    3306:	89 11                	mov    %edx,(%rcx)
                return &chain.val;
    3308:	48 c7 c1 e0 ff ff ff 	mov    $0xffffffffffffffe0,%rcx
    330f:	48 03 cd             	add    %rbp,%rcx
    3312:	48 8b 11             	mov    (%rcx),%rdx
    3315:	b9 10 00 00 00       	mov    $0x10,%ecx
    331a:	48 03 d1             	add    %rcx,%rdx
    331d:	48 89 55 f8          	mov    %rdx,-0x8(%rbp)
    3321:	48 81 c4 30 00 00 00 	add    $0x30,%rsp
    3328:	8f c5                	pop    %rbp
    332a:	c3                   	ret
            }
            if chain.key == key {
    332b:	48 c7 c1 e0 ff ff ff 	mov    $0xffffffffffffffe0,%rcx
    3332:	48 03 cd             	add    %rbp,%rcx
    3335:	48 8b 11             	mov    (%rcx),%rdx
    3338:	48 8b 0a             	mov    (%rdx),%rcx
    333b:	ff f1                	push   %rcx
    333d:	48 8b 4d 18          	mov    0x18(%rbp),%rcx
    3341:	8f c2                	pop    %rdx
    3343:	48 3b d1             	cmp    %rcx,%rdx
    3346:	40 0f 94 c2          	rex sete %dl
    334a:	48 0f b6 d2          	movzbq %dl,%rdx
    334e:	48 83 fa 00          	cmp    $0x0,%rdx
    3352:	0f 84 5d 00 00 00    	je     33b5 <main+0x33b5>
                destruct(&chain.val)
    3358:	48 c7 c1 e0 ff ff ff 	mov    $0xffffffffffffffe0,%rcx
    335f:	48 03 cd             	add    %rbp,%rcx
    3362:	48 8b 11             	mov    (%rcx),%rdx
    3365:	b9 10 00 00 00       	mov    $0x10,%ecx
    336a:	48 03 d1             	add    %rcx,%rdx
    336d:	33 c9                	xor    %ecx,%ecx
    336f:	89 0a                	mov    %ecx,(%rdx)
                chain.val = val;
    3371:	8b 4d 20             	mov    0x20(%rbp),%ecx
    3374:	48 63 c9             	movslq %ecx,%rcx
    3377:	ff f1                	push   %rcx
    3379:	48 c7 c1 e0 ff ff ff 	mov    $0xffffffffffffffe0,%rcx
    3380:	48 03 cd             	add    %rbp,%rcx
    3383:	48 8b 11             	mov    (%rcx),%rdx
    3386:	b9 10 00 00 00       	mov    $0x10,%ecx
    338b:	48 03 d1             	add    %rcx,%rdx
    338e:	8f c1                	pop    %rcx
    3390:	89 0a                	mov    %ecx,(%rdx)
                return &chain.val;
    3392:	48 c7 c1 e0 ff ff ff 	mov    $0xffffffffffffffe0,%rcx
    3399:	48 03 cd             	add    %rbp,%rcx
    339c:	48 8b 11             	mov    (%rcx),%rdx
    339f:	b9 10 00 00 00       	mov    $0x10,%ecx
    33a4:	48 03 d1             	add    %rcx,%rdx
    33a7:	48 89 55 f8          	mov    %rdx,-0x8(%rbp)
    33ab:	48 81 c4 30 00 00 00 	add    $0x30,%rsp
    33b2:	8f c5                	pop    %rbp
    33b4:	c3                   	ret
            }
            if chain.next == MAP_CHAIN_INDEX_NULL {
    33b5:	48 c7 c1 e0 ff ff ff 	mov    $0xffffffffffffffe0,%rcx
    33bc:	48 03 cd             	add    %rbp,%rcx
    33bf:	48 8b 11             	mov    (%rcx),%rdx
    33c2:	b9 08 00 00 00       	mov    $0x8,%ecx
    33c7:	48 03 d1             	add    %rcx,%rdx
    33ca:	8b 0a                	mov    (%rdx),%ecx
    33cc:	ff f1                	push   %rcx
    33ce:	b9 00 00 00 00       	mov    $0x0,%ecx
    33d3:	8f c2                	pop    %rdx
    33d5:	3b d1                	cmp    %ecx,%edx
    33d7:	40 0f 94 c2          	rex sete %dl
    33db:	48 0f b6 d2          	movzbq %dl,%rdx
    33df:	48 83 fa 00          	cmp    $0x0,%rdx
    33e3:	0f 84 f4 00 00 00    	je     34dd <main+0x34dd>
                chain.next = chains.size()+1; // not size because 0 is seen as null
    33e9:	48 81 ec 10 00 00 00 	sub    $0x10,%rsp
    33f0:	48 8b 4d 10          	mov    0x10(%rbp),%rcx
    33f4:	48 8b c9             	mov    %rcx,%rcx
    33f7:	ba 00 00 00 00       	mov    $0x0,%edx
    33fc:	48 03 ca             	add    %rdx,%rcx
    33ff:	48 89 0c 24          	mov    %rcx,(%rsp)
    3403:	e8 43 d4 ff ff       	call   84b <main+0x84b>
    3408:	48 81 c4 10 00 00 00 	add    $0x10,%rsp
    340f:	8b 4c 24 d8          	mov    -0x28(%rsp),%ecx
    3413:	48 63 c9             	movslq %ecx,%rcx
    3416:	ff f1                	push   %rcx
    3418:	b9 01 00 00 00       	mov    $0x1,%ecx
    341d:	8f c2                	pop    %rdx
    341f:	03 d1                	add    %ecx,%edx
    3421:	ff f2                	push   %rdx
    3423:	48 c7 c1 e0 ff ff ff 	mov    $0xffffffffffffffe0,%rcx
    342a:	48 03 cd             	add    %rbp,%rcx
    342d:	48 8b 11             	mov    (%rcx),%rdx
    3430:	b9 08 00 00 00       	mov    $0x8,%ecx
    3435:	48 03 d1             	add    %rcx,%rdx
    3438:	8f c1                	pop    %rcx
    343a:	89 0a                	mov    %ecx,(%rdx)
                chain2 := chains.add(MapChain<Key,Val>{
    343c:	48 81 ec 20 00 00 00 	sub    $0x20,%rsp
    3443:	48 8b 4d 10          	mov    0x10(%rbp),%rcx
    3447:	48 8b c9             	mov    %rcx,%rcx
    344a:	ba 00 00 00 00       	mov    $0x0,%edx
    344f:	48 03 ca             	add    %rdx,%rcx
    3452:	ff f1                	push   %rcx
    3454:	8b 4d 20             	mov    0x20(%rbp),%ecx
    3457:	48 63 c9             	movslq %ecx,%rcx
    345a:	ff f1                	push   %rcx
    345c:	b9 00 00 00 00       	mov    $0x0,%ecx
    3461:	ff f1                	push   %rcx
    3463:	b9 00 00 00 00       	mov    $0x0,%ecx
    3468:	ff f1                	push   %rcx
    346a:	48 8b 4d 18          	mov    0x18(%rbp),%rcx
    346e:	48 89 4c 24 28       	mov    %rcx,0x28(%rsp)
    3473:	8f c1                	pop    %rcx
    3475:	89 4c 24 28          	mov    %ecx,0x28(%rsp)
    3479:	8f c1                	pop    %rcx
    347b:	88 4c 24 24          	mov    %cl,0x24(%rsp)
    347f:	8f c1                	pop    %rcx
    3481:	89 4c 24 20          	mov    %ecx,0x20(%rsp)
    3485:	8f c1                	pop    %rcx
    3487:	48 89 0c 24          	mov    %rcx,(%rsp)
    348b:	e8 8b ce ff ff       	call   31b <main+0x31b>
    3490:	48 81 c4 20 00 00 00 	add    $0x20,%rsp
    3497:	48 8b 4c 24 c8       	mov    -0x38(%rsp),%rcx
    349c:	48 89 4d d8          	mov    %rcx,-0x28(%rbp)
                    key = key, next = 0, unused = false, val = val
                });
                count++;
    34a0:	48 8b 4d 10          	mov    0x10(%rbp),%rcx
    34a4:	48 8b c9             	mov    %rcx,%rcx
    34a7:	ba 20 00 00 00       	mov    $0x20,%edx
    34ac:	48 03 ca             	add    %rdx,%rcx
    34af:	8b 11                	mov    (%rcx),%edx
    34b1:	48 81 c2 01 00 00 00 	add    $0x1,%rdx
    34b8:	89 11                	mov    %edx,(%rcx)
                return &chain2.val;
    34ba:	48 c7 c1 d8 ff ff ff 	mov    $0xffffffffffffffd8,%rcx
    34c1:	48 03 cd             	add    %rbp,%rcx
    34c4:	48 8b 11             	mov    (%rcx),%rdx
    34c7:	b9 10 00 00 00       	mov    $0x10,%ecx
    34cc:	48 03 d1             	add    %rcx,%rdx
    34cf:	48 89 55 f8          	mov    %rdx,-0x8(%rbp)
    34d3:	48 81 c4 30 00 00 00 	add    $0x30,%rsp
    34da:	8f c5                	pop    %rbp
    34dc:	c3                   	ret
            }
            index = chain.next;
    34dd:	48 c7 c1 e0 ff ff ff 	mov    $0xffffffffffffffe0,%rcx
    34e4:	48 03 cd             	add    %rbp,%rcx
    34e7:	48 8b 11             	mov    (%rcx),%rdx
    34ea:	b9 08 00 00 00       	mov    $0x8,%ecx
    34ef:	48 03 d1             	add    %rcx,%rdx
    34f2:	8b 0a                	mov    (%rdx),%ecx
    34f4:	ff f1                	push   %rcx
    34f6:	48 c7 c1 e8 ff ff ff 	mov    $0xffffffffffffffe8,%rcx
    34fd:	48 03 cd             	add    %rbp,%rcx
    3500:	8f c2                	pop    %rdx
    3502:	89 11                	mov    %edx,(%rcx)
    3504:	e9 15 fd ff ff       	jmp    321e <main+0x321e>
        }
        // UNREACHABLE
        return null;
    3509:	b9 00 00 00 00       	mov    $0x0,%ecx
    350e:	48 89 4d f8          	mov    %rcx,-0x8(%rbp)
    3512:	48 81 c4 30 00 00 00 	add    $0x30,%rsp
    3519:	8f c5                	pop    %rbp
    351b:	c3                   	ret
    fn set(key: Key, val: Val) -> Val* {
    351c:	ff f5                	push   %rbp
    351e:	48 8b ec             	mov    %rsp,%rbp
    3521:	48 81 ec 30 00 00 00 	sub    $0x30,%rsp
        slot := hash(key);
    3528:	48 81 ec 10 00 00 00 	sub    $0x10,%rsp
    352f:	48 8b 4d 10          	mov    0x10(%rbp),%rcx
    3533:	48 8b c9             	mov    %rcx,%rcx
    3536:	ff f1                	push   %rcx
    3538:	8b 4d 18             	mov    0x18(%rbp),%ecx
    353b:	8b c9                	mov    %ecx,%ecx
    353d:	8b d1                	mov    %ecx,%edx
    353f:	89 54 24 10          	mov    %edx,0x10(%rsp)
    3543:	8f c1                	pop    %rcx
    3545:	48 89 0c 24          	mov    %rcx,(%rsp)
    3549:	e8 bb f3 ff ff       	call   2909 <main+0x2909>
    354e:	48 81 c4 10 00 00 00 	add    $0x10,%rsp
    3555:	8b 4c 24 d8          	mov    -0x28(%rsp),%ecx
    3559:	48 63 c9             	movslq %ecx,%rcx
    355c:	89 4d f0             	mov    %ecx,-0x10(%rbp)
        if slot >= table.len {
    355f:	8b 4d f0             	mov    -0x10(%rbp),%ecx
    3562:	ff f1                	push   %rcx
    3564:	48 8b 4d 10          	mov    0x10(%rbp),%rcx
    3568:	48 8b c9             	mov    %rcx,%rcx
    356b:	ba 10 00 00 00       	mov    $0x10,%edx
    3570:	48 03 ca             	add    %rdx,%rcx
    3573:	ba 0c 00 00 00       	mov    $0xc,%edx
    3578:	48 03 ca             	add    %rdx,%rcx
    357b:	8b 11                	mov    (%rcx),%edx
    357d:	8f c1                	pop    %rcx
    357f:	3b ca                	cmp    %edx,%ecx
    3581:	40 0f 9d c1          	rex setge %cl
    3585:	48 0f b6 c9          	movzbq %cl,%rcx
    3589:	48 83 f9 00          	cmp    $0x0,%rcx
    358d:	0f 84 91 00 00 00    	je     3624 <main+0x3624>
            if table.len == 0
    3593:	48 8b 4d 10          	mov    0x10(%rbp),%rcx
    3597:	48 8b c9             	mov    %rcx,%rcx
    359a:	ba 10 00 00 00       	mov    $0x10,%edx
    359f:	48 03 ca             	add    %rdx,%rcx
    35a2:	ba 0c 00 00 00       	mov    $0xc,%edx
    35a7:	48 03 ca             	add    %rdx,%rcx
    35aa:	8b 11                	mov    (%rcx),%edx
    35ac:	ff f2                	push   %rdx
    35ae:	b9 00 00 00 00       	mov    $0x0,%ecx
    35b3:	8f c2                	pop    %rdx
    35b5:	3b d1                	cmp    %ecx,%edx
    35b7:	40 0f 94 c2          	rex sete %dl
    35bb:	48 0f b6 d2          	movzbq %dl,%rdx
    35bf:	48 83 fa 00          	cmp    $0x0,%rdx
    35c3:	0f 84 48 00 00 00    	je     3611 <main+0x3611>
                log("Dude, you forgot to initialize the hash map (Map.btb)")
    35c9:	48 81 ec 10 00 00 00 	sub    $0x10,%rsp
    35d0:	b9 35 00 00 00       	mov    $0x35,%ecx
    35d5:	ff f1                	push   %rcx
    35d7:	48 8d 0d 00 00 00 00 	lea    0x0(%rip),%rcx        # 35de <main+0x35de>
    35de:	48 89 4c 24 08       	mov    %rcx,0x8(%rsp)
    35e3:	8f c1                	pop    %rcx
    35e5:	48 89 4c 24 08       	mov    %rcx,0x8(%rsp)
    35ea:	e8 a3 0a 00 00       	call   4092 <main+0x4092>
    35ef:	48 81 c4 10 00 00 00 	add    $0x10,%rsp
    35f6:	48 81 ec 10 00 00 00 	sub    $0x10,%rsp
    35fd:	b9 0a 00 00 00       	mov    $0xa,%ecx
    3602:	88 0c 24             	mov    %cl,(%rsp)
    3605:	e8 e7 09 00 00       	call   3ff1 <main+0x3ff1>
    360a:	48 81 c4 10 00 00 00 	add    $0x10,%rsp
            return null;
    3611:	b9 00 00 00 00       	mov    $0x0,%ecx
    3616:	48 89 4d f8          	mov    %rcx,-0x8(%rbp)
    361a:	48 81 c4 30 00 00 00 	add    $0x30,%rsp
    3621:	8f c5                	pop    %rbp
    3623:	c3                   	ret
        index := table.get(slot);
    3624:	48 81 ec 10 00 00 00 	sub    $0x10,%rsp
    362b:	48 8b 4d 10          	mov    0x10(%rbp),%rcx
    362f:	48 8b c9             	mov    %rcx,%rcx
    3632:	ba 10 00 00 00       	mov    $0x10,%edx
    3637:	48 03 ca             	add    %rdx,%rcx
    363a:	ff f1                	push   %rcx
    363c:	8b 4d f0             	mov    -0x10(%rbp),%ecx
    363f:	89 4c 24 10          	mov    %ecx,0x10(%rsp)
    3643:	8f c1                	pop    %rcx
    3645:	48 89 0c 24          	mov    %rcx,(%rsp)
    3649:	e8 fb d2 ff ff       	call   949 <main+0x949>
    364e:	48 81 c4 10 00 00 00 	add    $0x10,%rsp
    3655:	8b 4c 24 d8          	mov    -0x28(%rsp),%ecx
    3659:	48 63 c9             	movslq %ecx,%rcx
    365c:	89 4d e8             	mov    %ecx,-0x18(%rbp)
        if index == 0 {
    365f:	8b 4d e8             	mov    -0x18(%rbp),%ecx
    3662:	ff f1                	push   %rcx
    3664:	b9 00 00 00 00       	mov    $0x0,%ecx
    3669:	8f c2                	pop    %rdx
    366b:	3b d1                	cmp    %ecx,%edx
    366d:	40 0f 94 c2          	rex sete %dl
    3671:	48 0f b6 d2          	movzbq %dl,%rdx
    3675:	48 83 fa 00          	cmp    $0x0,%rdx
    3679:	0f 84 95 01 00 00    	je     3814 <main+0x3814>
            chain := chains.add(MapChain<Key,Val>{key = key, next = 0, unused = false, val = val});
    367f:	48 81 ec 50 00 00 00 	sub    $0x50,%rsp
    3686:	48 8b 4d 10          	mov    0x10(%rbp),%rcx
    368a:	48 8b c9             	mov    %rcx,%rcx
    368d:	ba 00 00 00 00       	mov    $0x0,%edx
    3692:	48 03 ca             	add    %rdx,%rcx
    3695:	ff f1                	push   %rcx
    3697:	8b 4d 48             	mov    0x48(%rbp),%ecx
    369a:	48 63 c9             	movslq %ecx,%rcx
    369d:	ff f1                	push   %rcx
    369f:	8b 4d 44             	mov    0x44(%rbp),%ecx
    36a2:	48 63 c9             	movslq %ecx,%rcx
    36a5:	ff f1                	push   %rcx
    36a7:	8b 4d 40             	mov    0x40(%rbp),%ecx
    36aa:	48 63 c9             	movslq %ecx,%rcx
    36ad:	ff f1                	push   %rcx
    36af:	48 8b 4d 38          	mov    0x38(%rbp),%rcx
    36b3:	ff f1                	push   %rcx
    36b5:	8b 4d 34             	mov    0x34(%rbp),%ecx
    36b8:	48 63 c9             	movslq %ecx,%rcx
    36bb:	ff f1                	push   %rcx
    36bd:	8b 4d 30             	mov    0x30(%rbp),%ecx
    36c0:	48 63 c9             	movslq %ecx,%rcx
    36c3:	ff f1                	push   %rcx
    36c5:	48 8b 4d 28          	mov    0x28(%rbp),%rcx
    36c9:	ff f1                	push   %rcx
    36cb:	8b 4d 24             	mov    0x24(%rbp),%ecx
    36ce:	48 63 c9             	movslq %ecx,%rcx
    36d1:	ff f1                	push   %rcx
    36d3:	48 8a 4d 23          	rex.W mov 0x23(%rbp),%cl
    36d7:	48 0f b6 c9          	movzbq %cl,%rcx
    36db:	ff f1                	push   %rcx
    36dd:	48 8a 4d 22          	rex.W mov 0x22(%rbp),%cl
    36e1:	48 0f b6 c9          	movzbq %cl,%rcx
    36e5:	ff f1                	push   %rcx
    36e7:	66 8b 4d 20          	mov    0x20(%rbp),%cx
    36eb:	48 0f b7 c9          	movzwq %cx,%rcx
    36ef:	ff f1                	push   %rcx
    36f1:	b9 00 00 00 00       	mov    $0x0,%ecx
    36f6:	ff f1                	push   %rcx
    36f8:	b9 00 00 00 00       	mov    $0x0,%ecx
    36fd:	ff f1                	push   %rcx
    36ff:	8b 4d 18             	mov    0x18(%rbp),%ecx
    3702:	8b c9                	mov    %ecx,%ecx
    3704:	89 4c 24 78          	mov    %ecx,0x78(%rsp)
    3708:	8f c1                	pop    %rcx
    370a:	89 4c 24 74          	mov    %ecx,0x74(%rsp)
    370e:	8f c1                	pop    %rcx
    3710:	88 4c 24 70          	mov    %cl,0x70(%rsp)
    3714:	8f c1                	pop    %rcx
    3716:	66 89 4c 24 70       	mov    %cx,0x70(%rsp)
    371b:	8f c1                	pop    %rcx
    371d:	88 4c 24 6a          	mov    %cl,0x6a(%rsp)
    3721:	8f c1                	pop    %rcx
    3723:	88 4c 24 63          	mov    %cl,0x63(%rsp)
    3727:	8f c1                	pop    %rcx
    3729:	89 4c 24 5c          	mov    %ecx,0x5c(%rsp)
    372d:	8f c1                	pop    %rcx
    372f:	48 89 4c 24 58       	mov    %rcx,0x58(%rsp)
    3734:	8f c1                	pop    %rcx
    3736:	89 4c 24 58          	mov    %ecx,0x58(%rsp)
    373a:	8f c1                	pop    %rcx
    373c:	89 4c 24 54          	mov    %ecx,0x54(%rsp)
    3740:	8f c1                	pop    %rcx
    3742:	48 89 4c 24 50       	mov    %rcx,0x50(%rsp)
    3747:	8f c1                	pop    %rcx
    3749:	89 4c 24 50          	mov    %ecx,0x50(%rsp)
    374d:	8f c1                	pop    %rcx
    374f:	89 4c 24 4c          	mov    %ecx,0x4c(%rsp)
    3753:	8f c1                	pop    %rcx
    3755:	89 4c 24 48          	mov    %ecx,0x48(%rsp)
    3759:	8f c1                	pop    %rcx
    375b:	48 89 0c 24          	mov    %rcx,(%rsp)
    375f:	e8 39 cd ff ff       	call   49d <main+0x49d>
    3764:	48 81 c4 50 00 00 00 	add    $0x50,%rsp
    376b:	48 8b 4c 24 98       	mov    -0x68(%rsp),%rcx
    3770:	48 89 4d e0          	mov    %rcx,-0x20(%rbp)
            table.ptr[slot] = chains.size(); // not size-1 because 0 is seen as null
    3774:	48 81 ec 10 00 00 00 	sub    $0x10,%rsp
    377b:	48 8b 4d 10          	mov    0x10(%rbp),%rcx
    377f:	48 8b c9             	mov    %rcx,%rcx
    3782:	ba 00 00 00 00       	mov    $0x0,%edx
    3787:	48 03 ca             	add    %rdx,%rcx
    378a:	48 89 0c 24          	mov    %rcx,(%rsp)
    378e:	e8 fe d0 ff ff       	call   891 <main+0x891>
    3793:	48 81 c4 10 00 00 00 	add    $0x10,%rsp
    379a:	8b 4c 24 d8          	mov    -0x28(%rsp),%ecx
    379e:	48 63 c9             	movslq %ecx,%rcx
    37a1:	ff f1                	push   %rcx
    37a3:	48 8b 4d 10          	mov    0x10(%rbp),%rcx
    37a7:	48 8b c9             	mov    %rcx,%rcx
    37aa:	ba 10 00 00 00       	mov    $0x10,%edx
    37af:	48 03 ca             	add    %rdx,%rcx
    37b2:	ff f1                	push   %rcx
    37b4:	8b 4d f0             	mov    -0x10(%rbp),%ecx
    37b7:	8f c2                	pop    %rdx
    37b9:	48 8b 1a             	mov    (%rdx),%rbx
    37bc:	ba 04 00 00 00       	mov    $0x4,%edx
    37c1:	48 8b fa             	mov    %rdx,%rdi
    37c4:	48 8b c1             	mov    %rcx,%rax
    37c7:	48 f7 e7             	mul    %rdi
    37ca:	48 8b c8             	mov    %rax,%rcx
    37cd:	48 8b d7             	mov    %rdi,%rdx
    37d0:	48 03 d9             	add    %rcx,%rbx
    37d3:	8f c1                	pop    %rcx
    37d5:	89 0b                	mov    %ecx,(%rbx)
            count++;
    37d7:	48 8b 4d 10          	mov    0x10(%rbp),%rcx
    37db:	48 8b c9             	mov    %rcx,%rcx
    37de:	ba 20 00 00 00       	mov    $0x20,%edx
    37e3:	48 03 ca             	add    %rdx,%rcx
    37e6:	8b 11                	mov    (%rcx),%edx
    37e8:	48 81 c2 01 00 00 00 	add    $0x1,%rdx
    37ef:	89 11                	mov    %edx,(%rcx)
            return &chain.val;
    37f1:	48 c7 c1 e0 ff ff ff 	mov    $0xffffffffffffffe0,%rcx
    37f8:	48 03 cd             	add    %rbp,%rcx
    37fb:	48 8b 11             	mov    (%rcx),%rdx
    37fe:	b9 10 00 00 00       	mov    $0x10,%ecx
    3803:	48 03 d1             	add    %rcx,%rdx
    3806:	48 89 55 f8          	mov    %rdx,-0x8(%rbp)
    380a:	48 81 c4 30 00 00 00 	add    $0x30,%rsp
    3811:	8f c5                	pop    %rbp
    3813:	c3                   	ret
            chain := chains.get_unsafe(index-1); // -1 because 0 is null
    3814:	48 81 ec 10 00 00 00 	sub    $0x10,%rsp
    381b:	48 8b 4d 10          	mov    0x10(%rbp),%rcx
    381f:	48 8b c9             	mov    %rcx,%rcx
    3822:	ba 00 00 00 00       	mov    $0x0,%edx
    3827:	48 03 ca             	add    %rdx,%rcx
    382a:	ff f1                	push   %rcx
    382c:	8b 4d e8             	mov    -0x18(%rbp),%ecx
    382f:	ff f1                	push   %rcx
    3831:	b9 01 00 00 00       	mov    $0x1,%ecx
    3836:	8f c2                	pop    %rdx
    3838:	2b d1                	sub    %ecx,%edx
    383a:	89 54 24 10          	mov    %edx,0x10(%rsp)
    383e:	8f c1                	pop    %rcx
    3840:	48 89 0c 24          	mov    %rcx,(%rsp)
    3844:	e8 03 d2 ff ff       	call   a4c <main+0xa4c>
    3849:	48 81 c4 10 00 00 00 	add    $0x10,%rsp
    3850:	48 8b 4c 24 d8       	mov    -0x28(%rsp),%rcx
    3855:	48 89 4d e0          	mov    %rcx,-0x20(%rbp)
            if !chain
    3859:	48 8b 4d e0          	mov    -0x20(%rbp),%rcx
    385d:	48 85 c9             	test   %rcx,%rcx
    3860:	40 0f 94 c1          	rex sete %cl
    3864:	48 0f b6 c9          	movzbq %cl,%rcx
    3868:	48 83 f9 00          	cmp    $0x0,%rcx
    386c:	0f 84 13 00 00 00    	je     3885 <main+0x3885>
                return null; // TODO: Bug, assert instead
    3872:	b9 00 00 00 00       	mov    $0x0,%ecx
    3877:	48 89 4d f8          	mov    %rcx,-0x8(%rbp)
    387b:	48 81 c4 30 00 00 00 	add    $0x30,%rsp
    3882:	8f c5                	pop    %rbp
    3884:	c3                   	ret
            if chain.unused {
    3885:	48 c7 c1 e0 ff ff ff 	mov    $0xffffffffffffffe0,%rcx
    388c:	48 03 cd             	add    %rbp,%rcx
    388f:	48 8b 11             	mov    (%rcx),%rdx
    3892:	b9 08 00 00 00       	mov    $0x8,%ecx
    3897:	48 03 d1             	add    %rcx,%rdx
    389a:	48 8a 0a             	rex.W mov (%rdx),%cl
    389d:	48 0f b6 c9          	movzbq %cl,%rcx
    38a1:	48 83 f9 00          	cmp    $0x0,%rcx
    38a5:	0f 84 fd 00 00 00    	je     39a8 <main+0x39a8>
                chain.key = key;
    38ab:	8b 4d 18             	mov    0x18(%rbp),%ecx
    38ae:	8b c9                	mov    %ecx,%ecx
    38b0:	ff f1                	push   %rcx
    38b2:	48 c7 c1 e0 ff ff ff 	mov    $0xffffffffffffffe0,%rcx
    38b9:	48 03 cd             	add    %rbp,%rcx
    38bc:	48 8b 11             	mov    (%rcx),%rdx
    38bf:	8f c1                	pop    %rcx
    38c1:	89 0a                	mov    %ecx,(%rdx)
                chain.val = val;
    38c3:	8b 4d 48             	mov    0x48(%rbp),%ecx
    38c6:	48 63 c9             	movslq %ecx,%rcx
    38c9:	ff f1                	push   %rcx
    38cb:	8b 4d 44             	mov    0x44(%rbp),%ecx
    38ce:	48 63 c9             	movslq %ecx,%rcx
    38d1:	ff f1                	push   %rcx
    38d3:	8b 4d 40             	mov    0x40(%rbp),%ecx
    38d6:	48 63 c9             	movslq %ecx,%rcx
    38d9:	ff f1                	push   %rcx
    38db:	48 8b 4d 38          	mov    0x38(%rbp),%rcx
    38df:	ff f1                	push   %rcx
    38e1:	8b 4d 34             	mov    0x34(%rbp),%ecx
    38e4:	48 63 c9             	movslq %ecx,%rcx
    38e7:	ff f1                	push   %rcx
    38e9:	8b 4d 30             	mov    0x30(%rbp),%ecx
    38ec:	48 63 c9             	movslq %ecx,%rcx
    38ef:	ff f1                	push   %rcx
    38f1:	48 8b 4d 28          	mov    0x28(%rbp),%rcx
    38f5:	ff f1                	push   %rcx
    38f7:	8b 4d 24             	mov    0x24(%rbp),%ecx
    38fa:	48 63 c9             	movslq %ecx,%rcx
    38fd:	ff f1                	push   %rcx
    38ff:	48 8a 4d 23          	rex.W mov 0x23(%rbp),%cl
    3903:	48 0f b6 c9          	movzbq %cl,%rcx
    3907:	ff f1                	push   %rcx
    3909:	48 8a 4d 22          	rex.W mov 0x22(%rbp),%cl
    390d:	48 0f b6 c9          	movzbq %cl,%rcx
    3911:	ff f1                	push   %rcx
    3913:	66 8b 4d 20          	mov    0x20(%rbp),%cx
    3917:	48 0f b7 c9          	movzwq %cx,%rcx
    391b:	ff f1                	push   %rcx
    391d:	48 c7 c1 e0 ff ff ff 	mov    $0xffffffffffffffe0,%rcx
    3924:	48 03 cd             	add    %rbp,%rcx
    3927:	48 8b 11             	mov    (%rcx),%rdx
    392a:	b9 10 00 00 00       	mov    $0x10,%ecx
    392f:	48 03 d1             	add    %rcx,%rdx
    3932:	8f c1                	pop    %rcx
    3934:	66 89 0a             	mov    %cx,(%rdx)
    3937:	8f c1                	pop    %rcx
    3939:	88 4a 02             	mov    %cl,0x2(%rdx)
    393c:	8f c1                	pop    %rcx
    393e:	88 4a 03             	mov    %cl,0x3(%rdx)
    3941:	8f c1                	pop    %rcx
    3943:	89 4a 04             	mov    %ecx,0x4(%rdx)
    3946:	8f c1                	pop    %rcx
    3948:	48 89 4a 08          	mov    %rcx,0x8(%rdx)
    394c:	8f c1                	pop    %rcx
    394e:	89 4a 10             	mov    %ecx,0x10(%rdx)
    3951:	8f c1                	pop    %rcx
    3953:	89 4a 14             	mov    %ecx,0x14(%rdx)
    3956:	8f c1                	pop    %rcx
    3958:	48 89 4a 18          	mov    %rcx,0x18(%rdx)
    395c:	8f c1                	pop    %rcx
    395e:	89 4a 20             	mov    %ecx,0x20(%rdx)
    3961:	8f c1                	pop    %rcx
    3963:	89 4a 24             	mov    %ecx,0x24(%rdx)
    3966:	8f c1                	pop    %rcx
    3968:	89 4a 28             	mov    %ecx,0x28(%rdx)
                count++;
    396b:	48 8b 4d 10          	mov    0x10(%rbp),%rcx
    396f:	48 8b c9             	mov    %rcx,%rcx
    3972:	ba 20 00 00 00       	mov    $0x20,%edx
    3977:	48 03 ca             	add    %rdx,%rcx
    397a:	8b 11                	mov    (%rcx),%edx
    397c:	48 81 c2 01 00 00 00 	add    $0x1,%rdx
    3983:	89 11                	mov    %edx,(%rcx)
                return &chain.val;
    3985:	48 c7 c1 e0 ff ff ff 	mov    $0xffffffffffffffe0,%rcx
    398c:	48 03 cd             	add    %rbp,%rcx
    398f:	48 8b 11             	mov    (%rcx),%rdx
    3992:	b9 10 00 00 00       	mov    $0x10,%ecx
    3997:	48 03 d1             	add    %rcx,%rdx
    399a:	48 89 55 f8          	mov    %rdx,-0x8(%rbp)
    399e:	48 81 c4 30 00 00 00 	add    $0x30,%rsp
    39a5:	8f c5                	pop    %rbp
    39a7:	c3                   	ret
            if chain.key == key {
    39a8:	48 c7 c1 e0 ff ff ff 	mov    $0xffffffffffffffe0,%rcx
    39af:	48 03 cd             	add    %rbp,%rcx
    39b2:	48 8b 11             	mov    (%rcx),%rdx
    39b5:	8b 0a                	mov    (%rdx),%ecx
    39b7:	ff f1                	push   %rcx
    39b9:	8b 4d 18             	mov    0x18(%rbp),%ecx
    39bc:	8b c9                	mov    %ecx,%ecx
    39be:	8f c2                	pop    %rdx
    39c0:	3b d1                	cmp    %ecx,%edx
    39c2:	40 0f 94 c2          	rex sete %dl
    39c6:	48 0f b6 d2          	movzbq %dl,%rdx
    39ca:	48 83 fa 00          	cmp    $0x0,%rdx
    39ce:	0f 84 02 01 00 00    	je     3ad6 <main+0x3ad6>
                destruct(&chain.val)
    39d4:	48 c7 c1 e0 ff ff ff 	mov    $0xffffffffffffffe0,%rcx
    39db:	48 03 cd             	add    %rbp,%rcx
    39de:	48 8b 11             	mov    (%rcx),%rdx
    39e1:	b9 10 00 00 00       	mov    $0x10,%ecx
    39e6:	48 03 d1             	add    %rcx,%rdx
    39e9:	b9 30 00 00 00       	mov    $0x30,%ecx
    39ee:	ff f2                	push   %rdx
    39f0:	ff f1                	push   %rcx
    39f2:	48 01 d1             	add    %rdx,%rcx
    39f5:	48 3b ca             	cmp    %rdx,%rcx
    39f8:	74 0d                	je     3a07 <main+0x3a07>
    39fa:	48 c7 02 00 00 00 00 	movq   $0x0,(%rdx)
    3a01:	48 83 c2 08          	add    $0x8,%rdx
    3a05:	eb ee                	jmp    39f5 <main+0x39f5>
    3a07:	8f c1                	pop    %rcx
    3a09:	8f c2                	pop    %rdx
                chain.val = val;
    3a0b:	8b 4d 48             	mov    0x48(%rbp),%ecx
    3a0e:	48 63 c9             	movslq %ecx,%rcx
    3a11:	ff f1                	push   %rcx
    3a13:	8b 4d 44             	mov    0x44(%rbp),%ecx
    3a16:	48 63 c9             	movslq %ecx,%rcx
    3a19:	ff f1                	push   %rcx
    3a1b:	8b 4d 40             	mov    0x40(%rbp),%ecx
    3a1e:	48 63 c9             	movslq %ecx,%rcx
    3a21:	ff f1                	push   %rcx
    3a23:	48 8b 4d 38          	mov    0x38(%rbp),%rcx
    3a27:	ff f1                	push   %rcx
    3a29:	8b 4d 34             	mov    0x34(%rbp),%ecx
    3a2c:	48 63 c9             	movslq %ecx,%rcx
    3a2f:	ff f1                	push   %rcx
    3a31:	8b 4d 30             	mov    0x30(%rbp),%ecx
    3a34:	48 63 c9             	movslq %ecx,%rcx
    3a37:	ff f1                	push   %rcx
    3a39:	48 8b 4d 28          	mov    0x28(%rbp),%rcx
    3a3d:	ff f1                	push   %rcx
    3a3f:	8b 4d 24             	mov    0x24(%rbp),%ecx
    3a42:	48 63 c9             	movslq %ecx,%rcx
    3a45:	ff f1                	push   %rcx
    3a47:	48 8a 4d 23          	rex.W mov 0x23(%rbp),%cl
    3a4b:	48 0f b6 c9          	movzbq %cl,%rcx
    3a4f:	ff f1                	push   %rcx
    3a51:	48 8a 4d 22          	rex.W mov 0x22(%rbp),%cl
    3a55:	48 0f b6 c9          	movzbq %cl,%rcx
    3a59:	ff f1                	push   %rcx
    3a5b:	66 8b 4d 20          	mov    0x20(%rbp),%cx
    3a5f:	48 0f b7 c9          	movzwq %cx,%rcx
    3a63:	ff f1                	push   %rcx
    3a65:	48 c7 c1 e0 ff ff ff 	mov    $0xffffffffffffffe0,%rcx
    3a6c:	48 03 cd             	add    %rbp,%rcx
    3a6f:	48 8b 11             	mov    (%rcx),%rdx
    3a72:	b9 10 00 00 00       	mov    $0x10,%ecx
    3a77:	48 03 d1             	add    %rcx,%rdx
    3a7a:	8f c1                	pop    %rcx
    3a7c:	66 89 0a             	mov    %cx,(%rdx)
    3a7f:	8f c1                	pop    %rcx
    3a81:	88 4a 02             	mov    %cl,0x2(%rdx)
    3a84:	8f c1                	pop    %rcx
    3a86:	88 4a 03             	mov    %cl,0x3(%rdx)
    3a89:	8f c1                	pop    %rcx
    3a8b:	89 4a 04             	mov    %ecx,0x4(%rdx)
    3a8e:	8f c1                	pop    %rcx
    3a90:	48 89 4a 08          	mov    %rcx,0x8(%rdx)
    3a94:	8f c1                	pop    %rcx
    3a96:	89 4a 10             	mov    %ecx,0x10(%rdx)
    3a99:	8f c1                	pop    %rcx
    3a9b:	89 4a 14             	mov    %ecx,0x14(%rdx)
    3a9e:	8f c1                	pop    %rcx
    3aa0:	48 89 4a 18          	mov    %rcx,0x18(%rdx)
    3aa4:	8f c1                	pop    %rcx
    3aa6:	89 4a 20             	mov    %ecx,0x20(%rdx)
    3aa9:	8f c1                	pop    %rcx
    3aab:	89 4a 24             	mov    %ecx,0x24(%rdx)
    3aae:	8f c1                	pop    %rcx
    3ab0:	89 4a 28             	mov    %ecx,0x28(%rdx)
                return &chain.val;
    3ab3:	48 c7 c1 e0 ff ff ff 	mov    $0xffffffffffffffe0,%rcx
    3aba:	48 03 cd             	add    %rbp,%rcx
    3abd:	48 8b 11             	mov    (%rcx),%rdx
    3ac0:	b9 10 00 00 00       	mov    $0x10,%ecx
    3ac5:	48 03 d1             	add    %rcx,%rdx
    3ac8:	48 89 55 f8          	mov    %rdx,-0x8(%rbp)
    3acc:	48 81 c4 30 00 00 00 	add    $0x30,%rsp
    3ad3:	8f c5                	pop    %rbp
    3ad5:	c3                   	ret
            if chain.next == MAP_CHAIN_INDEX_NULL {
    3ad6:	48 c7 c1 e0 ff ff ff 	mov    $0xffffffffffffffe0,%rcx
    3add:	48 03 cd             	add    %rbp,%rcx
    3ae0:	48 8b 11             	mov    (%rcx),%rdx
    3ae3:	b9 04 00 00 00       	mov    $0x4,%ecx
    3ae8:	48 03 d1             	add    %rcx,%rdx
    3aeb:	8b 0a                	mov    (%rdx),%ecx
    3aed:	ff f1                	push   %rcx
    3aef:	b9 00 00 00 00       	mov    $0x0,%ecx
    3af4:	8f c2                	pop    %rdx
    3af6:	3b d1                	cmp    %ecx,%edx
    3af8:	40 0f 94 c2          	rex sete %dl
    3afc:	48 0f b6 d2          	movzbq %dl,%rdx
    3b00:	48 83 fa 00          	cmp    $0x0,%rdx
    3b04:	0f 84 85 01 00 00    	je     3c8f <main+0x3c8f>
                chain.next = chains.size()+1; // not size because 0 is seen as null
    3b0a:	48 81 ec 10 00 00 00 	sub    $0x10,%rsp
    3b11:	48 8b 4d 10          	mov    0x10(%rbp),%rcx
    3b15:	48 8b c9             	mov    %rcx,%rcx
    3b18:	ba 00 00 00 00       	mov    $0x0,%edx
    3b1d:	48 03 ca             	add    %rdx,%rcx
    3b20:	48 89 0c 24          	mov    %rcx,(%rsp)
    3b24:	e8 68 cd ff ff       	call   891 <main+0x891>
    3b29:	48 81 c4 10 00 00 00 	add    $0x10,%rsp
    3b30:	8b 4c 24 d8          	mov    -0x28(%rsp),%ecx
    3b34:	48 63 c9             	movslq %ecx,%rcx
    3b37:	ff f1                	push   %rcx
    3b39:	b9 01 00 00 00       	mov    $0x1,%ecx
    3b3e:	8f c2                	pop    %rdx
    3b40:	03 d1                	add    %ecx,%edx
    3b42:	ff f2                	push   %rdx
    3b44:	48 c7 c1 e0 ff ff ff 	mov    $0xffffffffffffffe0,%rcx
    3b4b:	48 03 cd             	add    %rbp,%rcx
    3b4e:	48 8b 11             	mov    (%rcx),%rdx
    3b51:	b9 04 00 00 00       	mov    $0x4,%ecx
    3b56:	48 03 d1             	add    %rcx,%rdx
    3b59:	8f c1                	pop    %rcx
    3b5b:	89 0a                	mov    %ecx,(%rdx)
                chain2 := chains.add(MapChain<Key,Val>{
    3b5d:	48 81 ec 50 00 00 00 	sub    $0x50,%rsp
    3b64:	48 8b 4d 10          	mov    0x10(%rbp),%rcx
    3b68:	48 8b c9             	mov    %rcx,%rcx
    3b6b:	ba 00 00 00 00       	mov    $0x0,%edx
    3b70:	48 03 ca             	add    %rdx,%rcx
    3b73:	ff f1                	push   %rcx
    3b75:	8b 4d 48             	mov    0x48(%rbp),%ecx
    3b78:	48 63 c9             	movslq %ecx,%rcx
    3b7b:	ff f1                	push   %rcx
    3b7d:	8b 4d 44             	mov    0x44(%rbp),%ecx
    3b80:	48 63 c9             	movslq %ecx,%rcx
    3b83:	ff f1                	push   %rcx
    3b85:	8b 4d 40             	mov    0x40(%rbp),%ecx
    3b88:	48 63 c9             	movslq %ecx,%rcx
    3b8b:	ff f1                	push   %rcx
    3b8d:	48 8b 4d 38          	mov    0x38(%rbp),%rcx
    3b91:	ff f1                	push   %rcx
    3b93:	8b 4d 34             	mov    0x34(%rbp),%ecx
    3b96:	48 63 c9             	movslq %ecx,%rcx
    3b99:	ff f1                	push   %rcx
    3b9b:	8b 4d 30             	mov    0x30(%rbp),%ecx
    3b9e:	48 63 c9             	movslq %ecx,%rcx
    3ba1:	ff f1                	push   %rcx
    3ba3:	48 8b 4d 28          	mov    0x28(%rbp),%rcx
    3ba7:	ff f1                	push   %rcx
    3ba9:	8b 4d 24             	mov    0x24(%rbp),%ecx
    3bac:	48 63 c9             	movslq %ecx,%rcx
    3baf:	ff f1                	push   %rcx
    3bb1:	48 8a 4d 23          	rex.W mov 0x23(%rbp),%cl
    3bb5:	48 0f b6 c9          	movzbq %cl,%rcx
    3bb9:	ff f1                	push   %rcx
    3bbb:	48 8a 4d 22          	rex.W mov 0x22(%rbp),%cl
    3bbf:	48 0f b6 c9          	movzbq %cl,%rcx
    3bc3:	ff f1                	push   %rcx
    3bc5:	66 8b 4d 20          	mov    0x20(%rbp),%cx
    3bc9:	48 0f b7 c9          	movzwq %cx,%rcx
    3bcd:	ff f1                	push   %rcx
    3bcf:	b9 00 00 00 00       	mov    $0x0,%ecx
    3bd4:	ff f1                	push   %rcx
    3bd6:	b9 00 00 00 00       	mov    $0x0,%ecx
    3bdb:	ff f1                	push   %rcx
    3bdd:	8b 4d 18             	mov    0x18(%rbp),%ecx
    3be0:	8b c9                	mov    %ecx,%ecx
    3be2:	89 4c 24 78          	mov    %ecx,0x78(%rsp)
    3be6:	8f c1                	pop    %rcx
    3be8:	89 4c 24 74          	mov    %ecx,0x74(%rsp)
    3bec:	8f c1                	pop    %rcx
    3bee:	88 4c 24 70          	mov    %cl,0x70(%rsp)
    3bf2:	8f c1                	pop    %rcx
    3bf4:	66 89 4c 24 70       	mov    %cx,0x70(%rsp)
    3bf9:	8f c1                	pop    %rcx
    3bfb:	88 4c 24 6a          	mov    %cl,0x6a(%rsp)
    3bff:	8f c1                	pop    %rcx
    3c01:	88 4c 24 63          	mov    %cl,0x63(%rsp)
    3c05:	8f c1                	pop    %rcx
    3c07:	89 4c 24 5c          	mov    %ecx,0x5c(%rsp)
    3c0b:	8f c1                	pop    %rcx
    3c0d:	48 89 4c 24 58       	mov    %rcx,0x58(%rsp)
    3c12:	8f c1                	pop    %rcx
    3c14:	89 4c 24 58          	mov    %ecx,0x58(%rsp)
    3c18:	8f c1                	pop    %rcx
    3c1a:	89 4c 24 54          	mov    %ecx,0x54(%rsp)
    3c1e:	8f c1                	pop    %rcx
    3c20:	48 89 4c 24 50       	mov    %rcx,0x50(%rsp)
    3c25:	8f c1                	pop    %rcx
    3c27:	89 4c 24 50          	mov    %ecx,0x50(%rsp)
    3c2b:	8f c1                	pop    %rcx
    3c2d:	89 4c 24 4c          	mov    %ecx,0x4c(%rsp)
    3c31:	8f c1                	pop    %rcx
    3c33:	89 4c 24 48          	mov    %ecx,0x48(%rsp)
    3c37:	8f c1                	pop    %rcx
    3c39:	48 89 0c 24          	mov    %rcx,(%rsp)
    3c3d:	e8 5b c8 ff ff       	call   49d <main+0x49d>
    3c42:	48 81 c4 50 00 00 00 	add    $0x50,%rsp
    3c49:	48 8b 4c 24 98       	mov    -0x68(%rsp),%rcx
    3c4e:	48 89 4d d8          	mov    %rcx,-0x28(%rbp)
                count++;
    3c52:	48 8b 4d 10          	mov    0x10(%rbp),%rcx
    3c56:	48 8b c9             	mov    %rcx,%rcx
    3c59:	ba 20 00 00 00       	mov    $0x20,%edx
    3c5e:	48 03 ca             	add    %rdx,%rcx
    3c61:	8b 11                	mov    (%rcx),%edx
    3c63:	48 81 c2 01 00 00 00 	add    $0x1,%rdx
    3c6a:	89 11                	mov    %edx,(%rcx)
                return &chain2.val;
    3c6c:	48 c7 c1 d8 ff ff ff 	mov    $0xffffffffffffffd8,%rcx
    3c73:	48 03 cd             	add    %rbp,%rcx
    3c76:	48 8b 11             	mov    (%rcx),%rdx
    3c79:	b9 10 00 00 00       	mov    $0x10,%ecx
    3c7e:	48 03 d1             	add    %rcx,%rdx
    3c81:	48 89 55 f8          	mov    %rdx,-0x8(%rbp)
    3c85:	48 81 c4 30 00 00 00 	add    $0x30,%rsp
    3c8c:	8f c5                	pop    %rbp
    3c8e:	c3                   	ret
            index = chain.next;
    3c8f:	48 c7 c1 e0 ff ff ff 	mov    $0xffffffffffffffe0,%rcx
    3c96:	48 03 cd             	add    %rbp,%rcx
    3c99:	48 8b 11             	mov    (%rcx),%rdx
    3c9c:	b9 04 00 00 00       	mov    $0x4,%ecx
    3ca1:	48 03 d1             	add    %rcx,%rdx
    3ca4:	8b 0a                	mov    (%rdx),%ecx
    3ca6:	ff f1                	push   %rcx
    3ca8:	48 c7 c1 e8 ff ff ff 	mov    $0xffffffffffffffe8,%rcx
    3caf:	48 03 cd             	add    %rbp,%rcx
    3cb2:	8f c2                	pop    %rdx
    3cb4:	89 11                	mov    %edx,(%rcx)
    3cb6:	e9 59 fb ff ff       	jmp    3814 <main+0x3814>
        return null;
    3cbb:	b9 00 00 00 00       	mov    $0x0,%ecx
    3cc0:	48 89 4d f8          	mov    %rcx,-0x8(%rbp)
    3cc4:	48 81 c4 30 00 00 00 	add    $0x30,%rsp
    3ccb:	8f c5                	pop    %rbp
    3ccd:	c3                   	ret
        chain := find_chain_unsafe(key);
        if chain
            return chain.val;
        return Val{};
    }
    fn find(key: Key) -> Val* {
    3cce:	ff f5                	push   %rbp
    3cd0:	48 8b ec             	mov    %rsp,%rbp
    3cd3:	48 81 ec 18 00 00 00 	sub    $0x18,%rsp
        chain := find_chain_unsafe(key);
    3cda:	48 81 ec 18 00 00 00 	sub    $0x18,%rsp
    3ce1:	48 8b 4d 10          	mov    0x10(%rbp),%rcx
    3ce5:	48 8b c9             	mov    %rcx,%rcx
    3ce8:	ff f1                	push   %rcx
    3cea:	48 8b 4d 18          	mov    0x18(%rbp),%rcx
    3cee:	48 89 4c 24 10       	mov    %rcx,0x10(%rsp)
    3cf3:	8f c1                	pop    %rcx
    3cf5:	48 89 0c 24          	mov    %rcx,(%rsp)
    3cf9:	e8 e0 ed ff ff       	call   2ade <main+0x2ade>
    3cfe:	48 81 c4 18 00 00 00 	add    $0x18,%rsp
    3d05:	48 8b 4c 24 d0       	mov    -0x30(%rsp),%rcx
    3d0a:	48 89 4d f0          	mov    %rcx,-0x10(%rbp)
        if chain
    3d0e:	48 8b 4d f0          	mov    -0x10(%rbp),%rcx
    3d12:	ba 00 00 00 00       	mov    $0x0,%edx
    3d17:	48 3b ca             	cmp    %rdx,%rcx
    3d1a:	40 0f 95 c1          	rex setne %cl
    3d1e:	48 0f b6 c9          	movzbq %cl,%rcx
    3d22:	48 83 f9 00          	cmp    $0x0,%rcx
    3d26:	0f 84 23 00 00 00    	je     3d4f <main+0x3d4f>
            return &chain.val;
    3d2c:	48 c7 c1 f0 ff ff ff 	mov    $0xfffffffffffffff0,%rcx
    3d33:	48 03 cd             	add    %rbp,%rcx
    3d36:	48 8b 11             	mov    (%rcx),%rdx
    3d39:	b9 10 00 00 00       	mov    $0x10,%ecx
    3d3e:	48 03 d1             	add    %rcx,%rdx
    3d41:	48 89 55 f8          	mov    %rdx,-0x8(%rbp)
    3d45:	48 81 c4 18 00 00 00 	add    $0x18,%rsp
    3d4c:	8f c5                	pop    %rbp
    3d4e:	c3                   	ret
        return null;
    3d4f:	b9 00 00 00 00       	mov    $0x0,%ecx
    3d54:	48 89 4d f8          	mov    %rcx,-0x8(%rbp)
    3d58:	48 81 c4 18 00 00 00 	add    $0x18,%rsp
    3d5f:	8f c5                	pop    %rbp
    3d61:	c3                   	ret
    fn find(key: Key) -> Val* {
    3d62:	ff f5                	push   %rbp
    3d64:	48 8b ec             	mov    %rsp,%rbp
    3d67:	48 81 ec 18 00 00 00 	sub    $0x18,%rsp
        chain := find_chain_unsafe(key);
    3d6e:	48 81 ec 18 00 00 00 	sub    $0x18,%rsp
    3d75:	48 8b 4d 10          	mov    0x10(%rbp),%rcx
    3d79:	48 8b c9             	mov    %rcx,%rcx
    3d7c:	ff f1                	push   %rcx
    3d7e:	8b 4d 18             	mov    0x18(%rbp),%ecx
    3d81:	8b c9                	mov    %ecx,%ecx
    3d83:	89 4c 24 10          	mov    %ecx,0x10(%rsp)
    3d87:	8f c1                	pop    %rcx
    3d89:	48 89 0c 24          	mov    %rcx,(%rsp)
    3d8d:	e8 b9 ef ff ff       	call   2d4b <main+0x2d4b>
    3d92:	48 81 c4 18 00 00 00 	add    $0x18,%rsp
    3d99:	48 8b 4c 24 d0       	mov    -0x30(%rsp),%rcx
    3d9e:	48 89 4d f0          	mov    %rcx,-0x10(%rbp)
        if chain
    3da2:	48 8b 4d f0          	mov    -0x10(%rbp),%rcx
    3da6:	ba 00 00 00 00       	mov    $0x0,%edx
    3dab:	48 3b ca             	cmp    %rdx,%rcx
    3dae:	40 0f 95 c1          	rex setne %cl
    3db2:	48 0f b6 c9          	movzbq %cl,%rcx
    3db6:	48 83 f9 00          	cmp    $0x0,%rcx
    3dba:	0f 84 23 00 00 00    	je     3de3 <main+0x3de3>
            return &chain.val;
    3dc0:	48 c7 c1 f0 ff ff ff 	mov    $0xfffffffffffffff0,%rcx
    3dc7:	48 03 cd             	add    %rbp,%rcx
    3dca:	48 8b 11             	mov    (%rcx),%rdx
    3dcd:	b9 10 00 00 00       	mov    $0x10,%ecx
    3dd2:	48 03 d1             	add    %rcx,%rdx
    3dd5:	48 89 55 f8          	mov    %rdx,-0x8(%rbp)
    3dd9:	48 81 c4 18 00 00 00 	add    $0x18,%rsp
    3de0:	8f c5                	pop    %rbp
    3de2:	c3                   	ret
        return null;
    3de3:	b9 00 00 00 00       	mov    $0x0,%ecx
    3de8:	48 89 4d f8          	mov    %rcx,-0x8(%rbp)
    3dec:	48 81 c4 18 00 00 00 	add    $0x18,%rsp
    3df3:	8f c5                	pop    %rbp
    3df5:	c3                   	ret
fn std_print(value: u64){
    s: StringBuilder
    s.append(value)
    prints(s)
}
fn std_print(value: i64){
    3df6:	ff f5                	push   %rbp
    3df8:	48 8b ec             	mov    %rsp,%rbp
    3dfb:	48 81 ec 10 00 00 00 	sub    $0x10,%rsp
    s: StringBuilder
    3e02:	b9 10 00 00 00       	mov    $0x10,%ecx
    3e07:	48 ba f0 ff ff ff ff 	movabs $0xfffffffffffffff0,%rdx
    3e0e:	ff ff ff 
    3e11:	48 03 d5             	add    %rbp,%rdx
    3e14:	48 83 c2 00          	add    $0x0,%rdx
    3e18:	ff f2                	push   %rdx
    3e1a:	ff f1                	push   %rcx
    3e1c:	48 01 d1             	add    %rdx,%rcx
    3e1f:	48 3b ca             	cmp    %rdx,%rcx
    3e22:	74 0d                	je     3e31 <main+0x3e31>
    3e24:	48 c7 02 00 00 00 00 	movq   $0x0,(%rdx)
    3e2b:	48 83 c2 08          	add    $0x8,%rdx
    3e2f:	eb ee                	jmp    3e1f <main+0x3e1f>
    3e31:	8f c1                	pop    %rcx
    3e33:	8f c2                	pop    %rdx
    s.append(value)
    3e35:	48 81 ec 10 00 00 00 	sub    $0x10,%rsp
    3e3c:	48 c7 c1 f0 ff ff ff 	mov    $0xfffffffffffffff0,%rcx
    3e43:	48 03 cd             	add    %rbp,%rcx
    3e46:	ff f1                	push   %rcx
    3e48:	48 8b 4d 10          	mov    0x10(%rbp),%rcx
    3e4c:	48 8b c9             	mov    %rcx,%rcx
    3e4f:	48 89 4c 24 10       	mov    %rcx,0x10(%rsp)
    3e54:	8f c1                	pop    %rcx
    3e56:	48 89 0c 24          	mov    %rcx,(%rsp)
    3e5a:	e8 84 0c 00 00       	call   4ae3 <main+0x4ae3>
    3e5f:	48 81 c4 10 00 00 00 	add    $0x10,%rsp
    prints(s)
    3e66:	48 81 ec 10 00 00 00 	sub    $0x10,%rsp
    3e6d:	8b 4d fc             	mov    -0x4(%rbp),%ecx
    3e70:	ff f1                	push   %rcx
    3e72:	8b 4d f8             	mov    -0x8(%rbp),%ecx
    3e75:	ff f1                	push   %rcx
    3e77:	48 8b 4d f0          	mov    -0x10(%rbp),%rcx
    3e7b:	48 89 4c 24 10       	mov    %rcx,0x10(%rsp)
    3e80:	8f c1                	pop    %rcx
    3e82:	89 4c 24 10          	mov    %ecx,0x10(%rsp)
    3e86:	8f c1                	pop    %rcx
    3e88:	89 4c 24 0c          	mov    %ecx,0xc(%rsp)
    3e8c:	e8 b5 03 00 00       	call   4246 <main+0x4246>
    3e91:	48 81 c4 10 00 00 00 	add    $0x10,%rsp
    3e98:	48 8b 4c 24 d8       	mov    -0x28(%rsp),%rcx
    3e9d:	48 8b c9             	mov    %rcx,%rcx
    3ea0:	ff f1                	push   %rcx
    3ea2:	48 8b 4c 24 d8       	mov    -0x28(%rsp),%rcx
    3ea7:	8f c2                	pop    %rdx
    3ea9:	48 81 ec 10 00 00 00 	sub    $0x10,%rsp
    3eb0:	48 8b f1             	mov    %rcx,%rsi
    3eb3:	48 8b fa             	mov    %rdx,%rdi
    3eb6:	48 83 ec 38          	sub    $0x38,%rsp
    3eba:	b9 f5 ff ff ff       	mov    $0xfffffff5,%ecx
    3ebf:	ff 15 00 00 00 00    	call   *0x0(%rip)        # 3ec5 <main+0x3ec5>
    3ec5:	48 c7 44 24 20 00 00 	movq   $0x0,0x20(%rsp)
    3ecc:	00 00 
    3ece:	4d 31 c9             	xor    %r9,%r9
    3ed1:	49 89 f8             	mov    %rdi,%r8
    3ed4:	48 89 f2             	mov    %rsi,%rdx
    3ed7:	48 89 c1             	mov    %rax,%rcx
    3eda:	ff 15 00 00 00 00    	call   *0x0(%rip)        # 3ee0 <main+0x3ee0>
    3ee0:	48 83 c4 38          	add    $0x38,%rsp
    3ee4:	48 81 c4 10 00 00 00 	add    $0x10,%rsp
    3eeb:	48 81 c4 10 00 00 00 	add    $0x10,%rsp
    3ef2:	8f c5                	pop    %rbp
    3ef4:	c3                   	ret
fn std_print(value: f64, max_decimals: i32 = 3){
    s: StringBuilder
    s.append(value, max_decimals)
    prints(s)
}
fn std_print(value: void*) {
    3ef5:	ff f5                	push   %rbp
    3ef7:	48 8b ec             	mov    %rsp,%rbp
    3efa:	48 81 ec 10 00 00 00 	sub    $0x10,%rsp
    s: StringBuilder
    3f01:	b9 10 00 00 00       	mov    $0x10,%ecx
    3f06:	48 ba f0 ff ff ff ff 	movabs $0xfffffffffffffff0,%rdx
    3f0d:	ff ff ff 
    3f10:	48 03 d5             	add    %rbp,%rdx
    3f13:	48 83 c2 00          	add    $0x0,%rdx
    3f17:	ff f2                	push   %rdx
    3f19:	ff f1                	push   %rcx
    3f1b:	48 01 d1             	add    %rdx,%rcx
    3f1e:	48 3b ca             	cmp    %rdx,%rcx
    3f21:	74 0d                	je     3f30 <main+0x3f30>
    3f23:	48 c7 02 00 00 00 00 	movq   $0x0,(%rdx)
    3f2a:	48 83 c2 08          	add    $0x8,%rdx
    3f2e:	eb ee                	jmp    3f1e <main+0x3f1e>
    3f30:	8f c1                	pop    %rcx
    3f32:	8f c2                	pop    %rdx
    s.append(value)
    3f34:	48 81 ec 10 00 00 00 	sub    $0x10,%rsp
    3f3b:	48 c7 c1 f0 ff ff ff 	mov    $0xfffffffffffffff0,%rcx
    3f42:	48 03 cd             	add    %rbp,%rcx
    3f45:	ff f1                	push   %rcx
    3f47:	48 8b 4d 10          	mov    0x10(%rbp),%rcx
    3f4b:	48 89 4c 24 10       	mov    %rcx,0x10(%rsp)
    3f50:	8f c1                	pop    %rcx
    3f52:	48 89 0c 24          	mov    %rcx,(%rsp)
    3f56:	e8 1b 0f 00 00       	call   4e76 <main+0x4e76>
    3f5b:	48 81 c4 10 00 00 00 	add    $0x10,%rsp
    prints(s)
    3f62:	48 81 ec 10 00 00 00 	sub    $0x10,%rsp
    3f69:	8b 4d fc             	mov    -0x4(%rbp),%ecx
    3f6c:	ff f1                	push   %rcx
    3f6e:	8b 4d f8             	mov    -0x8(%rbp),%ecx
    3f71:	ff f1                	push   %rcx
    3f73:	48 8b 4d f0          	mov    -0x10(%rbp),%rcx
    3f77:	48 89 4c 24 10       	mov    %rcx,0x10(%rsp)
    3f7c:	8f c1                	pop    %rcx
    3f7e:	89 4c 24 10          	mov    %ecx,0x10(%rsp)
    3f82:	8f c1                	pop    %rcx
    3f84:	89 4c 24 0c          	mov    %ecx,0xc(%rsp)
    3f88:	e8 b9 02 00 00       	call   4246 <main+0x4246>
    3f8d:	48 81 c4 10 00 00 00 	add    $0x10,%rsp
    3f94:	48 8b 4c 24 d8       	mov    -0x28(%rsp),%rcx
    3f99:	48 8b c9             	mov    %rcx,%rcx
    3f9c:	ff f1                	push   %rcx
    3f9e:	48 8b 4c 24 d8       	mov    -0x28(%rsp),%rcx
    3fa3:	8f c2                	pop    %rdx
    3fa5:	48 81 ec 10 00 00 00 	sub    $0x10,%rsp
    3fac:	48 8b f1             	mov    %rcx,%rsi
    3faf:	48 8b fa             	mov    %rdx,%rdi
    3fb2:	48 83 ec 38          	sub    $0x38,%rsp
    3fb6:	b9 f5 ff ff ff       	mov    $0xfffffff5,%ecx
    3fbb:	ff 15 00 00 00 00    	call   *0x0(%rip)        # 3fc1 <main+0x3fc1>
    3fc1:	48 c7 44 24 20 00 00 	movq   $0x0,0x20(%rsp)
    3fc8:	00 00 
    3fca:	4d 31 c9             	xor    %r9,%r9
    3fcd:	49 89 f8             	mov    %rdi,%r8
    3fd0:	48 89 f2             	mov    %rsi,%rdx
    3fd3:	48 89 c1             	mov    %rax,%rcx
    3fd6:	ff 15 00 00 00 00    	call   *0x0(%rip)        # 3fdc <main+0x3fdc>
    3fdc:	48 83 c4 38          	add    $0x38,%rsp
    3fe0:	48 81 c4 10 00 00 00 	add    $0x10,%rsp
    3fe7:	48 81 c4 10 00 00 00 	add    $0x10,%rsp
    3fee:	8f c5                	pop    %rbp
    3ff0:	c3                   	ret
}
fn std_print(t: char){
    3ff1:	ff f5                	push   %rbp
    3ff3:	48 8b ec             	mov    %rsp,%rbp
    // printc(t);
    prints(Slice<char>{&t, 1})
    3ff6:	b9 01 00 00 00       	mov    $0x1,%ecx
    3ffb:	48 63 d1             	movslq %ecx,%rdx
    3ffe:	ff f2                	push   %rdx
    4000:	48 c7 c1 10 00 00 00 	mov    $0x10,%rcx
    4007:	48 03 cd             	add    %rbp,%rcx
    400a:	8f c2                	pop    %rdx
    400c:	48 81 ec 10 00 00 00 	sub    $0x10,%rsp
    4013:	48 8b f1             	mov    %rcx,%rsi
    4016:	48 8b fa             	mov    %rdx,%rdi
    4019:	48 83 ec 38          	sub    $0x38,%rsp
    401d:	b9 f5 ff ff ff       	mov    $0xfffffff5,%ecx
    4022:	ff 15 00 00 00 00    	call   *0x0(%rip)        # 4028 <main+0x4028>
    4028:	48 c7 44 24 20 00 00 	movq   $0x0,0x20(%rsp)
    402f:	00 00 
    4031:	4d 31 c9             	xor    %r9,%r9
    4034:	49 89 f8             	mov    %rdi,%r8
    4037:	48 89 f2             	mov    %rsi,%rdx
    403a:	48 89 c1             	mov    %rax,%rcx
    403d:	ff 15 00 00 00 00    	call   *0x0(%rip)        # 4043 <main+0x4043>
    4043:	48 83 c4 38          	add    $0x38,%rsp
    4047:	48 81 c4 10 00 00 00 	add    $0x10,%rsp
    if(t == '\n')
